(dp0
S'Knicks'
p1
(lp2
F0.0
aF-0.3
aF0.0
aF0.0
aF-0.2
aF0.19318181818181818
aF0.05188811188811189
aF0.0
aF0.0
aF0.0
aF1.0
aF0.13636363636363635
aF0.13636363636363635
aF0.13636363636363635
aF0.0
aF0.13636363636363635
aF0.13636363636363635
aF0.13636363636363635
aF0.13636363636363635
aF0.13636363636363635
aF0.13636363636363635
aF0.13636363636363635
aF0.13636363636363635
aF0.0
aF0.0
aF0.0
aF0.13636363636363635
aF0.13636363636363635
aF0.13636363636363635
aF0.13636363636363635
aF0.13636363636363635
aF0.13636363636363635
aF0.13636363636363635
aF0.13636363636363635
aF0.13636363636363635
aF0.13636363636363635
aF0.13636363636363635
aF0.4464285714285714
aF0.13636363636363635
aF0.13636363636363635
aF0.13636363636363635
aF0.13636363636363635
aF0.13636363636363635
aF0.13636363636363635
aF0.2848484848484848
aF0.0
aF0.1
aF0.0
aF0.0
aF0.5
aF-0.5
aF0.1
aF0.0
aF0.0
aF1.0
aF0.0
aF0.13636363636363635
aF0.3333333333333333
aF0.0
aF0.19999999999999998
aF0.4681818181818182
aF-0.1
aF0.0
aF0.0
aF0.0
aF0.0
aF0.0
aF0.0
aF0.2
aF0.3666666666666667
aF0.0
aF0.0
aF0.2333333333333333
aF0.0
aF0.07878787878787878
aF0.0
aF0.1
aF0.0
aF-0.07500000000000001
aF0.0
aF0.8
aF0.4
aF0.0
aF0.1
aF-0.016233766233766215
aF0.0
aF0.22916666666666666
aF0.2
aF0.8000000000000002
aF0.0
aF0.0
aF0.11666666666666665
aF1.0
aF0.7
aF0.0
aF0.0
aF0.0
aF0.1
aF0.5
aF-0.09999999999999994
aF-0.3333333333333333
aF0.5
aF0.0
aF0.55
aF0.29166666666666663
aF-0.23125
aF-0.5
aF-0.1
aF0.47500000000000003
aF0.7
aF0.0
aF0.0
aF-0.09999999999999999
aF0.0
aF-0.4571428571428572
aF0.0
aF-0.13181818181818183
aF0.15000000000000002
aF0.0
aF0.2
aF0.16666666666666666
aF0.35
aF0.0
aF0.0
aF0.2857142857142857
aF0.13636363636363635
aF0.13636363636363635
aF0.0
aF0.0
aF0.0
aF-0.2
aF0.2833333333333334
aF0.35
aF0.3333333333333333
aF0.0
aF0.0
aF0.0
aF1.0
aF0.4
aF0.0
aF0.0
aF0.0
aF0.0
aF0.0
aF0.13636363636363635
aF0.0
aF0.25
aF0.5
aF0.1
aF0.13636363636363635
aF0.13636363636363635
aF0.0
aF0.05833333333333335
aF0.3875
aF0.0
aF-0.024999999999999994
aF0.0
aF0.5
aF0.0
aF0.5
aF-0.4
aF0.0
aF0.0
aF0.5249999999999999
aF0.0
aF0.09459635416666667
aF0.2396825396825397
aF0.0
aF0.07878787878787878
aF-0.8749999999999998
aF0.9765625
aF0.0
aF-0.18888888888888888
aF0.0
aF0.0
aF0.0
aF-0.30357142857142855
aF-0.046875
aF0.0
aF-0.625
aF-0.3
aF-0.1
aF0.0
aF0.0
aF0.0
aF0.0
aF0.0
aF0.0
aF0.0
aF0.3333333333333333
aF0.0
aF0.0
aF0.16666666666666666
aF0.0
aF0.0
aF0.0
aF0.0
aF0.0
aF0.06818181818181818
aF0.052777777777777785
aF-0.75
aF0.06071428571428572
aF0.0
aF0.0
aF0.0
aF0.0
aF0.04388888888888889
aF0.0
aF0.0
aF0.0
aF0.6
aF0.45
aF-0.1
aF0.0
aF0.0
aF-0.022222222222222216
aF-0.16666666666666666
aF0.0
aF0.0
aF0.0
aF-0.3
aF0.0
aF0.0
aF-0.2
aF0.19318181818181818
aF0.05188811188811189
aF0.0
aF0.0
aF0.0
aF1.0
aF0.13636363636363635
aF0.13636363636363635
aF0.13636363636363635
aF0.0
aF0.13636363636363635
aF0.13636363636363635
aF0.13636363636363635
aF0.13636363636363635
aF0.13636363636363635
aF0.13636363636363635
aF0.13636363636363635
aF0.13636363636363635
aF0.0
aF0.0
aF0.0
aF0.13636363636363635
aF0.13636363636363635
aF0.13636363636363635
aF0.13636363636363635
aF0.13636363636363635
aF0.13636363636363635
aF0.13636363636363635
aF0.13636363636363635
aF0.13636363636363635
aF0.13636363636363635
aF0.13636363636363635
aF0.4464285714285714
aF0.13636363636363635
aF0.13636363636363635
aF0.13636363636363635
aF0.13636363636363635
aF0.13636363636363635
aF0.13636363636363635
aF0.2848484848484848
aF0.0
aF0.1
aF0.0
aF0.0
aF0.5
aF-0.5
aF0.1
aF0.0
aF0.0
aF1.0
aF0.0
aF0.13636363636363635
aF0.3333333333333333
aF0.0
aF0.19999999999999998
aF0.4681818181818182
aF-0.1
aF0.0
aF0.0
aF0.0
aF0.0
aF0.0
aF0.16666666666666666
aF0.0
aF0.0
aF0.0
aF0.2
aF0.3666666666666667
aF0.0
aF0.0
aF0.2333333333333333
aF0.0
aF0.07878787878787878
aF0.0
aF0.1
aF0.0
aF-0.07500000000000001
aF0.0
aF0.8
aF0.4
aF0.0
aF0.1
aF-0.016233766233766215
aF0.0
aF0.22916666666666666
aF0.2
aF0.8000000000000002
aF0.0
aF0.0
aF0.11666666666666665
aF1.0
aF0.7
aF0.0
aF0.0
aF0.0
aF0.1
aF0.5
aF-0.09999999999999994
aF-0.3333333333333333
aF0.5
aF0.0
aF0.55
aF0.29166666666666663
aF-0.23125
aF-0.5
aF-0.1
aF0.47500000000000003
aF0.7
aF0.0
aF0.0
aF-0.09999999999999999
aF0.0
aF-0.4571428571428572
aF0.0
aF-0.13181818181818183
aF0.15000000000000002
aF0.0
aF0.2
aF0.16666666666666666
aF0.35
aF0.0
aF0.0
aF0.2857142857142857
aF0.13636363636363635
aF0.13636363636363635
aF0.0
aF0.0
aF0.0
aF-0.2
aF0.2833333333333334
aF0.35
aF0.0
aF1.0
aF0.4
aF0.0
aF0.0
aF0.0
aF0.0
aF0.0
aF0.13636363636363635
aF0.0
aF0.25
aF0.5
aF0.1
aF0.13636363636363635
aF0.13636363636363635
aF0.0
aF0.05833333333333335
aF0.3875
aF0.0
aF-0.024999999999999994
aF0.0
aF0.5
aF0.0
aF0.5
aF-0.4
aF0.0
aF0.0
aF0.5249999999999999
aF0.0
aF0.09459635416666667
aF0.2396825396825397
aF0.0
aF0.07878787878787878
aF-0.8749999999999998
aF0.9765625
aF0.0
aF-0.18888888888888888
aF0.0
aF0.0
aF0.0
aF-0.30357142857142855
aF-0.046875
aF0.0
aF-0.625
aF-0.3
aF-0.1
aF0.0
aF0.0
aF0.0
aF0.0
aF0.0
aF0.0
aF0.0
aF0.3333333333333333
aF0.0
aF0.0
aF0.16666666666666666
aF0.0
aF0.0
aF0.0
aF0.0
aF0.0
aF0.06818181818181818
aF0.052777777777777785
aF-0.75
aF0.06071428571428572
aF0.0
aF0.0
aF0.0
aF0.0
aF0.04388888888888889
aF0.0
aF0.0
aF0.0
aF0.6
aF0.45
aF-0.1
aF0.0
aF0.0
aF-0.022222222222222216
aF-0.16666666666666666
aF0.0
aF0.0
asS'Warriors'
p3
(lp4
F0.0
aF0.0
aF0.0
aF0.0
aF0.0
aF0.0
aF0.275
aF0.0
aF1.0
aF0.13636363636363635
aF0.634375
aF0.0
aF0.5805729166666667
aF0.0
aF0.0
aF0.3
aF0.5
aF-0.5
aF0.4
aF0.0
aF0.2130952380952381
aF0.3125
aF-0.09999999999999998
aF0.2
aF0.0
aF0.08333333333333333
aF0.0052083333333333565
aF-0.025
aF0.625
aF0.0
aF0.0
aF0.7
aF0.010204081632653057
aF0.27499999999999997
aF0.0
aF0.014814814814814808
aF1.0
aF-0.09375
aF0.25
aF0.04999999999999999
aF0.0
aF-0.7000000000000001
aF0.7
aF0.30000000000000004
aF-0.037500000000000006
aF0.0
aF0.0
aF0.05
aF0.0
aF0.0
aF0.8
aF0.0
aF0.5
aF0.5
aF0.4166666666666667
aF0.075
aF0.0
aF0.24583333333333335
aF1.0
aF0.0
aF-0.3333333333333333
aF0.0
aF0.5
aF-0.7874999999999999
aF0.0
aF-0.19999999999999998
aF0.8
aF0.0
aF0.0
aF0.0
aF0.275
aF0.0
aF0.0
aF0.14642857142857138
aF0.0
aF0.4125
aF0.0
aF0.0
aF0.4
aF0.0
aF0.0
aF-0.13168601989746095
aF0.0
aF0.0
aF0.13636363636363635
aF0.0
aF0.0
aF-0.08333333333333333
aF0.0
aF-1.0
aF0.0
aF0.625
aF-0.1
aF0.2
aF0.5
aF0.0
aF0.5
aF0.5
aF0.10000000000000002
aF0.65
aF0.0
aF-0.25
aF0.1
aF0.0
aF0.5
aF0.0
aF0.0
aF0.0
aF0.0
aF0.0
aF-0.08571428571428573
aF0.0
aF0.1
aF0.55
aF0.05000000000000002
aF1.0
aF0.0
aF0.0
aF0.0
aF0.0
aF0.7
aF0.5666666666666667
aF-1.0
aF0.30000000000000004
aF0.5
aF0.78
aF0.0
aF0.0
aF0.0
aF0.0
aF0.0
aF0.0
aF0.0
aF0.275
aF0.0
aF1.0
aF0.13636363636363635
aF0.634375
aF0.0
aF0.5805729166666667
aF0.0
aF0.0
aF0.3
aF0.5
aF-0.5
aF0.4
aF0.0
aF0.8
aF0.0
aF0.0
aF0.25
aF0.5
aF0.0
aF0.0
aF0.2130952380952381
aF0.3125
aF-0.09999999999999998
aF0.2
aF0.0
aF0.08333333333333333
aF0.0052083333333333565
aF-0.025
aF0.625
aF0.0
aF0.0
aF0.7
aF0.010204081632653057
aF0.27499999999999997
aF0.0
aF0.014814814814814808
aF1.0
aF-0.09375
aF0.25
aF0.04999999999999999
aF0.0
aF-0.7000000000000001
aF0.7
aF0.24583333333333335
aF1.0
aF0.0
aF-0.3333333333333333
aF0.0
aF0.5
aF-0.7874999999999999
aF0.0
aF-0.19999999999999998
aF0.8
aF0.0
aF0.0
aF0.0
aF0.275
aF0.0
aF0.0
aF0.14642857142857138
aF0.0
aF0.4125
aF0.0
aF0.0
aF0.4
aF0.0
aF0.0
aF-0.13168601989746095
aF0.0
aF0.0
aF0.13636363636363635
aF0.0
aF0.0
aF-0.08333333333333333
aF0.0
aF-1.0
aF0.0
aF0.625
aF-0.1
aF0.2
aF0.5
aF0.0
aF0.5
aF0.5
aF0.10000000000000002
aF0.65
aF0.0
aF-0.25
aF0.1
aF0.0
aF0.5
aF0.0
aF0.0
aF0.0
aF0.0
aF0.0
aF-0.08571428571428573
aF0.0
aF0.1
aF0.55
aF0.05000000000000002
aF1.0
aF0.0
aF0.0
aF0.0
aF0.0
aF0.7
aF0.5666666666666667
aF-1.0
aF0.30000000000000004
aF0.5
aF0.78
asS'Hawks'
p5
(lp6
F0.0
aF-0.4
aF0.0
aF0.06944444444444445
aF0.0
aF0.6000000000000001
aF0.0
aF0.0
aF0.9
aF0.0
aF0.0
aF-0.35
aF0.0
aF0.0
aF0.0
aF0.0
aF0.0
aF0.0
aF0.35
aF0.0
aF0.1
aF0.26000000000000006
aF0.0
aF0.0
aF0.20625
aF0.125
aF0.0
aF0.3125
aF0.0
aF0.0
aF0.0
aF0.0
aF0.0
aF0.25
aF0.3625
aF0.0
aF0.0
aF0.0
aF0.0
aF0.1953125
aF0.0
aF0.0
aF0.0
aF0.2333333333333333
aF0.0
aF0.0
aF0.0
aF0.0
aF0.37750000000000006
aF0.0
aF0.244140625
aF0.0
aF0.30000000000000004
aF0.175
aF0.125
aF0.55
aF0.0
aF0.17222222222222222
aF0.185
aF0.625
aF0.0
aF-0.16666666666666666
aF-0.25
aF0.0
aF0.375
aF-0.6
aF0.0
aF0.46875
aF0.0
aF0.02777777777777778
aF0.0875
aF0.21666666666666665
aF0.0
aF0.0
aF0.0
aF-0.75
aF0.0
aF0.06944444444444445
aF0.0
aF0.0
aF0.0
aF0.0
aF-0.175
aF0.0
aF0.0
aF0.7
aF-0.4
aF0.0
aF0.0
aF-0.2916666666666667
aF0.0
aF0.1
aF0.0
aF0.0
aF0.0
aF0.25
aF0.0
aF0.125
aF0.4166666666666667
aF-0.14423076923076927
aF0.0
aF0.0
aF-0.7
aF-0.3
aF0.0
aF-0.2
aF0.0
aF0.16666666666666666
aF0.0
aF0.08928571428571429
aF0.0
aF0.0
aF0.0
aF0.0
aF0.0
aF0.0
aF0.0
aF0.27
aF0.1
aF0.4625
aF0.0
aF0.3333333333333333
aF0.13636363636363635
aF0.05
aF0.0
aF0.0
aF0.07857142857142857
aF-0.16666666666666666
aF0.13636363636363635
aF0.0
aF-0.4
aF0.0
aF0.06944444444444445
aF0.0
aF0.6000000000000001
aF0.0
aF0.0
aF0.9
aF0.0
aF0.0
aF-0.35
aF0.0
aF0.0
aF0.0
aF0.0
aF0.0
aF0.0
aF0.35
aF0.0
aF0.1
aF0.26000000000000006
aF0.0
aF0.0
aF0.20625
aF0.125
aF0.0
aF0.3125
aF0.0
aF0.0
aF0.0
aF0.0
aF0.0
aF0.25
aF0.3625
aF0.0
aF0.0
aF0.0
aF0.0
aF0.1953125
aF0.0
aF0.0
aF0.0
aF0.2333333333333333
aF0.0
aF0.0
aF0.0
aF0.06500000000000006
aF0.0
aF0.0
aF0.0
aF0.0
aF0.2375
aF0.0
aF-0.033333333333333354
aF0.0
aF-0.15416666666666667
aF0.0
aF0.0
aF-0.041666666666666664
aF0.175
aF0.125
aF0.55
aF0.0
aF0.17222222222222222
aF0.185
aF0.625
aF0.0
aF-0.16666666666666666
aF-0.25
aF0.0
aF0.375
aF-0.6
aF0.0
aF0.46875
aF0.0
aF0.02777777777777778
aF0.0875
aF0.21666666666666665
aF0.0
aF0.0
aF0.0
aF-0.75
aF0.0
aF0.06944444444444445
aF0.0
aF0.0
aF0.0
aF0.0
aF-0.175
aF0.0
aF0.0
aF0.7
aF-0.4
aF0.0
aF0.0
aF-0.2916666666666667
aF0.0
aF0.1
aF0.0
aF0.0
aF0.0
aF0.25
aF0.0
aF0.125
aF0.4166666666666667
aF-0.14423076923076927
aF0.0
aF0.0
aF-0.7
aF-0.3
aF0.0
aF-0.2
aF0.0
aF0.16666666666666666
aF0.0
aF0.08928571428571429
aF0.0
aF0.0
aF0.0
asS'Wizards'
p7
(lp8
F-0.4
aF0.375
aF0.07532467532467534
aF0.0
aF0.5
aF0.0
aF0.16666666666666666
aF0.5
aF0.5625
aF0.0
aF0.0
aF0.1
aF0.1
aF0.5
aF0.0
aF0.0
aF0.0
aF0.0
aF0.0
aF-0.2
aF0.5
aF0.3125
aF0.5
aF0.0
aF0.5
aF0.8
aF0.09999999999999999
aF0.19999999999999998
aF0.2
aF0.32222222222222224
aF0.8
aF0.0
aF0.5
aF0.2
aF0.0
aF0.65
aF0.0
aF-0.08333333333333333
aF0.4333333333333333
aF0.625
aF0.625
aF0.35
aF0.04999999999999999
aF0.5
aF0.2333333333333333
aF0.0
aF0.0
aF-0.4
aF0.45
aF0.0
aF0.8
aF0.5
aF-0.1875
aF-0.1875
aF0.4
aF0.3
aF-0.46
aF0.48000000000000004
aF0.0
aF0.0
aF0.5
aF0.25
aF0.0
aF-0.4
aF0.25
aF0.14285714285714285
aF-0.4
aF0.375
aF0.07532467532467534
aF0.0
aF0.5
aF0.0
aF0.16666666666666666
aF0.5
aF0.5625
aF0.0
aF0.0
aF0.1
aF0.1
aF0.5
aF0.0
aF0.0
aF0.0
aF0.0
aF0.0
aF0.5
aF0.3125
aF0.5
aF0.0
aF0.5
aF0.8
aF0.09999999999999999
aF0.19999999999999998
aF0.2
aF0.32222222222222224
aF0.8
aF0.0
aF0.5
aF0.2
aF0.0
aF0.65
aF0.0
aF-0.08333333333333333
aF0.4333333333333333
aF0.625
aF0.625
aF0.35
aF0.04999999999999999
aF0.5
aF0.2333333333333333
aF0.0
aF0.0
aF-0.4
aF0.45
aF0.0
aF0.8
aF0.5
aF-0.1875
aF-0.1875
aF0.4
aF0.3
aF-0.46
aF0.48000000000000004
aF0.0
aF0.0
aF0.5
aF0.25
aF0.0
aF-0.4
aF0.25
aF0.14285714285714285
asS'76ers'
p9
(lp10
F0.0
aF0.0
aF0.5625
aF0.0
aF0.0
aF0.1541666666666667
aF0.3333333333333333
aF0.5785714285714285
aF0.0
aF0.0
aF0.55
aF0.0
aF0.4000000000000001
aF0.5
aF0.26666666666666666
aF-0.4
aF0.0
aF0.6499999999999999
aF0.55
aF0.0
aF0.0
aF0.0
aF0.0
aF0.0
aF-0.4
aF0.0
aF0.0
aF0.2
aF0.2
aF0.0
aF0.0
aF0.0
aF0.033333333333333326
aF0.8
aF0.0
aF-0.25
aF0.0
aF0.0
aF0.0
aF0.0
aF-0.07500000000000001
aF0.0
aF-0.1
aF0.2
aF0.0
aF0.4
aF-0.175
aF0.0
aF0.2
aF0.0
aF0.0
aF0.5
aF0.0
aF0.0
aF-0.5027777777777778
aF0.2
aF0.2
aF0.033333333333333326
aF0.0
aF0.32916666666666666
aF0.25
aF0.2
aF0.4166666666666667
aF0.0
aF0.13636363636363635
aF0.0
aF0.24285714285714285
aF0.28253968253968254
aF0.4
aF-0.4
aF0.0
aF-0.19999999999999998
aF-0.27499999999999997
aF0.1
aF-0.2
aF0.1
aF0.0
aF-0.6
aF-0.5
aF0.375
aF0.3666666666666667
aF0.26785714285714285
aF0.35
aF0.0
aF0.0
aF0.0
aF0.18825757575757573
aF0.0
aF0.0
aF0.2857142857142857
aF0.12000000000000002
aF0.0
aF-0.2
aF0.25
aF0.3666666666666667
aF0.0
aF0.0
aF0.0
aF0.10386904761904762
aF0.07499999999999998
aF-0.09166666666666667
aF-0.8
aF0.1875
aF0.0
aF0.0
aF-0.5
aF0.0
aF0.2857142857142857
aF0.8
aF-0.09999999999999992
aF0.0
aF-0.2
aF0.4
aF0.0
aF0.1
aF0.0
aF0.6
aF0.0
aF-0.1509259259259259
aF0.2
aF0.5
aF0.19999999999999998
aF0.25
aF0.0
aF0.19
aF0.5
aF0.0
aF-0.2
aF-0.7
aF0.0
aF-0.08492063492063494
aF0.0
aF0.25833333333333336
aF0.09523809523809523
aF0.0
aF0.0
aF-0.075
aF0.2857142857142857
aF0.2833333333333333
aF0.0
aF0.12986111111111112
aF0.8
aF-0.2
aF0.6000000000000001
aF0.4
aF-0.14444444444444443
aF0.0
aF-0.2
aF-0.25
aF-0.4
aF-0.025
aF0.0
aF-0.225
aF0.11249999999999999
aF-0.07777777777777779
aF0.0
aF0.0
aF0.13333333333333333
aF0.0
aF0.1688888888888889
aF0.024999999999999994
aF0.5
aF0.0
aF0.0
aF0.5625
aF0.0
aF0.0
aF0.1541666666666667
aF0.3333333333333333
aF0.5785714285714285
aF0.0
aF0.0
aF0.55
aF0.0
aF0.4000000000000001
aF0.5
aF0.26666666666666666
aF-0.4
aF0.0
aF0.6499999999999999
aF0.55
aF0.0
aF0.0
aF0.0
aF0.0
aF0.0
aF-0.4
aF0.0
aF0.0
aF0.2
aF0.2
aF0.0
aF0.0
aF0.0
aF0.033333333333333326
aF0.8
aF0.0
aF-0.25
aF0.0
aF0.0
aF0.0
aF0.0
aF-0.07500000000000001
aF0.0
aF-0.1
aF0.2
aF0.0
aF0.4
aF-0.175
aF0.0
aF0.2
aF0.0
aF0.0
aF0.5
aF0.0
aF0.0
aF-0.5027777777777778
aF0.2
aF0.2
aF0.033333333333333326
aF0.0
aF0.32916666666666666
aF0.25
aF0.2
aF0.4166666666666667
aF0.0
aF0.13636363636363635
aF0.0
aF0.24285714285714285
aF0.28253968253968254
aF0.4
aF-0.4
aF0.0
aF-0.19999999999999998
aF-0.27499999999999997
aF0.1
aF-0.2
aF0.1
aF0.0
aF-0.6
aF-0.5
aF0.375
aF0.3666666666666667
aF0.26785714285714285
aF0.35
aF0.0
aF0.0
aF0.0
aF0.18825757575757573
aF0.0
aF0.0
aF0.2857142857142857
aF0.12000000000000002
aF0.0
aF-0.2
aF0.25
aF0.3666666666666667
aF0.0
aF0.0
aF0.0
aF0.10386904761904762
aF0.07499999999999998
aF-0.09166666666666667
aF-0.8
aF0.1875
aF0.0
aF0.0
aF-0.5
aF0.0
aF0.2857142857142857
aF0.8
aF-0.09999999999999992
aF0.0
aF-0.2
aF0.4
aF0.0
aF0.1
aF0.0
aF0.6
aF0.0
aF-0.1509259259259259
aF0.2
aF0.5
aF0.19999999999999998
aF0.25
aF0.0
aF0.19
aF0.5
aF0.0
aF-0.2
aF-0.7
aF0.0
aF-0.08492063492063494
aF0.0
aF0.25833333333333336
aF0.09523809523809523
aF0.0
aF0.0
aF-0.075
aF0.2857142857142857
aF0.2833333333333333
aF0.0
aF0.12986111111111112
aF0.8
aF-0.2
aF0.6000000000000001
aF0.4
aF-0.14444444444444443
aF0.0
aF-0.2
aF-0.25
aF-0.4
aF-0.025
aF0.0
aF-0.225
aF0.11249999999999999
aF-0.07777777777777779
aF0.0
aF0.0
aF0.13333333333333333
aF0.0
aF0.1688888888888889
aF0.024999999999999994
aF0.5
asS'Nuggets'
p11
(lp12
F-0.4
aF0.0
aF0.0
aF0.0
aF0.0
aF0.0
aF-0.05833333333333333
aF0.0
aF0.0
aF0.0
aF0.0
aF0.0
aF0.0
aF-0.24166666666666667
aF0.0
aF0.0
aF0.0
aF0.0
aF-0.4
aF0.0
aF0.4464285714285714
aF0.0
aF0.0
aF0.8
aF0.0
aF0.20833333333333334
aF0.0
aF-0.19999999999999998
aF-0.3125
aF0.04999999999999999
aF-0.8
aF0.0
aF-0.4
aF-0.6
aF-0.4
aF0.0
aF-0.6
aF0.07999999999999999
aF0.0
aF-0.26944444444444443
aF0.0
aF0.16545454545454544
aF-0.675
aF0.1
aF-0.4
aF0.0
aF0.0
aF0.0
aF-0.023809523809523808
aF0.0
aF-0.6
aF-0.3125
aF0.0
aF-0.025641025641025588
aF0.0
aF0.4166666666666667
aF-0.4
aF0.5
aF-0.19999999999999998
aF0.0
aF0.22424242424242424
aF-0.6
aF0.0
aF0.0
aF-0.6
aF-0.07777777777777779
aF0.0
aF0.0
aF0.07727272727272727
aF0.1666666666666667
aF0.15
aF0.1
aF0.0
aF0.0
aF-0.6
aF0.0
aF0.0
aF-0.1875
aF0.0
aF0.375
aF0.9375000000000001
aF-0.033333333333333326
aF0.5333333333333333
aF-0.07142857142857142
aF0.0
aF0.0
aF0.39999999999999997
aF-0.4
aF0.0
aF0.0
aF0.0
aF0.0
aF0.0
aF-0.05833333333333333
aF0.0
aF0.0
aF0.0
aF0.0
aF0.0
aF0.0
aF-0.24166666666666667
aF0.0
aF0.0
aF0.0
aF0.0
aF-0.4
aF0.0
aF0.4464285714285714
aF0.5
aF0.3333333333333333
aF0.2333333333333333
aF0.0
aF0.25
aF-0.04999999999999999
aF0.13636363636363635
aF-0.6
aF0.175
aF0.4083333333333333
aF-0.0625
aF0.0
aF0.0
aF0.8
aF0.0
aF0.20833333333333334
aF0.0
aF-0.19999999999999998
aF-0.3125
aF0.04999999999999999
aF-0.8
aF0.0
aF-0.4
aF-0.6
aF-0.4
aF0.0
aF-0.6
aF0.07999999999999999
aF0.0
aF-0.26944444444444443
aF0.0
aF0.16545454545454544
aF-0.675
aF0.1
aF-0.4
aF0.0
aF0.0
aF0.0
aF-0.023809523809523808
aF0.0
aF-0.6
aF-0.3125
aF0.0
aF-0.025641025641025588
aF0.0
aF0.4166666666666667
aF-0.4
aF0.5
aF-0.19999999999999998
aF0.0
aF0.22424242424242424
aF-0.6
aF0.0
aF0.0
aF-0.6
aF-0.07777777777777779
aF0.0
aF0.0
aF0.07727272727272727
aF0.1666666666666667
aF0.15
aF0.1
aF0.0
aF0.0
aF-0.6
aF0.0
aF0.0
aF-0.1875
aF0.0
asS'Cavaliers'
p13
(lp14
F0.55
aF0.0
aF1.0
aF-0.23214285714285715
aF0.5
aF0.5
aF0.55
aF0.0
aF0.5
aF0.25
aF0.0
aF0.0
aF0.0
aF0.0
aF0.0
aF0.059999999999999984
aF-0.17291666666666666
aF0.0
aF0.0
aF0.0
aF0.0
aF0.5
aF0.0
aF0.0
aF0.26666666666666666
aF0.03968253968253968
aF0.37761904761904763
aF0.0
aF-0.07500000000000001
aF0.0
aF0.30000000000000004
aF-0.25
aF0.4
aF0.0
aF0.0
aF0.010416666666666666
aF-0.4
aF0.0
aF0.0
aF0.16666666666666666
aF0.0
aF0.5
aF0.0
aF0.3333333333333333
aF0.0
aF0.0
aF0.0
aF0.44000000000000006
aF0.0
aF0.5333333333333333
aF-0.125
aF-0.041666666666666664
aF0.890625
aF0.0
aF0.0
aF0.29444444444444445
aF0.0
aF0.3
aF0.55
aF0.0
aF1.0
aF-0.23214285714285715
aF0.5
aF0.5
aF0.55
aF0.0
aF0.6
aF0.0
aF0.35214285714285715
aF0.037037037037037035
aF0.5
aF0.25
aF0.0
aF0.0
aF0.0
aF0.0
aF0.0
aF0.059999999999999984
aF-0.17291666666666666
aF0.0
aF0.0
aF0.0
aF0.0
aF0.5
aF0.0
aF0.0
aF0.26666666666666666
aF0.03968253968253968
aF0.37761904761904763
aF0.0
aF-0.07500000000000001
aF0.0
aF0.30000000000000004
aF-0.25
aF0.4
aF0.0
aF0.0
aF0.010416666666666666
aF-0.4
aF0.0
aF0.0
aF0.16666666666666666
aF0.0
aF0.5
aF0.0
aF0.3333333333333333
aF0.0
aF0.0
aF0.0
aF0.44000000000000006
aF0.0
aF0.5333333333333333
aF-0.125
aF-0.041666666666666664
aF0.890625
aF0.0
aF0.0
aF0.29444444444444445
aF0.0
asS'Jazz'
p15
(lp16
F0.0
aF-0.22395833333333334
aF0.3806818181818182
aF0.0
aF0.35
aF-0.21666666666666667
aF-0.4
aF-0.27619047619047615
aF0.25
aF0.0
aF-0.4
aF-0.4
aF-0.4
aF0.0
aF0.0
aF0.5
aF0.0
aF0.13636363636363635
aF0.35833333333333334
aF0.0
aF0.0
aF0.0
aF0.3333333333333333
aF0.0
aF0.0
aF0.13636363636363635
aF0.5
aF0.2625
aF0.0
aF0.0
aF0.125
aF-0.3357638888888889
aF0.0
aF0.4625
aF-0.75
aF0.0
aF0.0
aF-0.16666666666666666
aF-0.625
aF0.45
aF0.5
aF0.0
aF0.020738636363636362
aF-0.24305555555555558
aF0.5
aF0.0
aF0.0
aF0.0
aF0.2666666666666667
aF0.3
aF0.65
aF0.3666666666666667
aF0.0
aF0.0
aF0.3333333333333333
aF0.0
aF0.35
aF0.2
aF0.0
aF0.0
aF0.03472222222222222
aF0.30000000000000004
aF0.0
aF0.0
aF0.45
aF0.0
aF0.0
aF0.0
aF-0.6
aF0.0
aF0.5272727272727272
aF0.48333333333333334
aF0.5410714285714285
aF0.0
aF0.13636363636363635
aF0.0
aF-0.08181818181818185
aF0.0
aF0.1
aF0.8333333333333333
aF0.5
aF0.0
aF0.0
aF-0.22395833333333334
aF0.3806818181818182
aF0.0
aF0.35
aF-0.21666666666666667
aF-0.4
aF-0.27619047619047615
aF0.25
aF0.0
aF-0.4
aF-0.4
aF-0.4
aF0.0
aF0.0
aF0.5
aF0.0
aF0.13636363636363635
aF0.35833333333333334
aF0.0
aF0.0
aF-0.6
aF0.5
aF0.38690476190476186
aF0.0
aF0.4
aF0.005681818181818177
aF0.2556818181818182
aF0.0
aF0.0
aF0.0
aF0.0
aF-0.4
aF0.2857142857142857
aF0.0
aF0.3181818181818182
aF0.0
aF0.0
aF0.3333333333333333
aF0.0
aF0.0
aF0.13636363636363635
aF0.5
aF0.2625
aF0.0
aF0.0
aF0.125
aF-0.3357638888888889
aF0.0
aF0.4625
aF-0.75
aF0.0
aF0.0
aF-0.16666666666666666
aF-0.625
aF0.45
aF0.5
aF0.0
aF0.020738636363636362
aF-0.24305555555555558
aF0.5
aF0.0
aF0.0
aF0.0
aF0.2666666666666667
aF0.3
aF0.65
aF0.3666666666666667
aF0.0
aF0.0
aF0.3333333333333333
aF0.0
aF0.35
aF0.2
aF0.0
aF0.0
aF0.03472222222222222
aF0.30000000000000004
asS'Timberwolves'
p17
(lp18
F0.26875
aF1.0
aF0.0
aF-0.16666666666666666
aF0.0
aF0.0
aF0.25
aF-0.06805555555555555
aF0.5
aF0.4
aF0.0
aF0.0
aF0.0
aF0.0
aF0.0
aF0.0
aF0.25
aF0.0
aF0.1
aF0.0
aF0.0
aF0.0
aF0.0
aF0.0
aF0.0
aF0.0
aF0.0
aF0.0
aF0.0
aF0.0
aF0.0
aF-0.4
aF0.475
aF0.09523809523809523
aF-0.024999999999999994
aF0.21666666666666667
aF0.21666666666666667
aF0.045
aF0.0
aF0.3
aF0.5375
aF-0.07142857142857138
aF-0.013333333333333286
aF0.625
aF-0.10312499999999997
aF0.0
aF-0.07142857142857144
aF-0.4
aF0.5583333333333333
aF0.78125
aF-0.07500000000000001
aF-0.4
aF0.0
aF0.0
aF0.0
aF0.0
aF1.0
aF0.0
aF0.0
aF0.0
aF0.75
aF0.06818181818181818
aF0.20000000000000004
aF0.25000000000000006
aF-0.4
aF0.46875
aF0.5333333333333333
aF-0.25
aF0.65
aF0.55
aF0.5
aF0.0
aF0.475
aF0.0
aF0.0
aF1.0
aF0.0
aF0.9
aF0.8125
aF0.25
aF0.0
aF-1.0
aF0.0
aF0.0
aF0.0
aF0.4
aF0.35
aF0.35
aF0.0
aF-0.8
aF1.0
aF1.0
aF-0.5
aF-0.4
aF0.0
aF0.5
aF0.0
aF0.4
aF-0.4005681818181818
aF0.1964285714285714
aF-0.05000000000000001
aF0.33999999999999997
aF0.0
aF-0.1125
aF0.0
aF0.0
aF0.29583333333333334
aF0.09999999999999998
aF0.0
aF0.29375000000000007
aF-0.25
aF0.0
aF0.0
aF0.43333333333333335
aF0.0
aF0.35
aF0.0
aF0.14999999999999997
aF-0.5
aF0.75
aF-0.225
aF-0.4
aF0.2681818181818182
aF0.4
aF0.0
aF0.8
aF0.20000000000000004
aF0.0
aF0.0
aF-0.1875
aF0.26875
aF1.0
aF0.0
aF-0.16666666666666666
aF0.0
aF0.0
aF0.25
aF-0.06805555555555555
aF0.5
aF0.4
aF0.0
aF0.0
aF0.0
aF0.0
aF0.0
aF0.0
aF0.25
aF0.0
aF0.1
aF0.0
aF0.0
aF0.0
aF0.0
aF0.0
aF0.0
aF0.0
aF0.0
aF0.0
aF0.0
aF0.0
aF0.0
aF-0.4
aF0.475
aF0.09523809523809523
aF-0.024999999999999994
aF0.21666666666666667
aF0.21666666666666667
aF0.045
aF0.0
aF0.3
aF0.5375
aF-0.07142857142857138
aF-0.013333333333333286
aF0.625
aF-0.10312499999999997
aF0.0
aF-0.07142857142857144
aF-0.4
aF0.5583333333333333
aF0.78125
aF-0.07500000000000001
aF-0.4
aF0.0
aF0.0
aF0.0
aF0.0
aF1.0
aF0.0
aF0.0
aF0.0
aF0.75
aF0.06818181818181818
aF0.20000000000000004
aF0.25000000000000006
aF-0.4
aF0.46875
aF0.5333333333333333
aF-0.25
aF0.65
aF0.55
aF0.5
aF0.0
aF0.475
aF0.0
aF0.0
aF1.0
aF0.0
aF0.9
aF0.8125
aF0.25
aF0.0
aF-1.0
aF0.0
aF0.0
aF0.0
aF0.4
aF0.35
aF0.35
aF-0.1875
aF0.0
aF-0.8
aF1.0
aF1.0
aF-0.5
aF-0.4
aF0.0
aF0.5
aF0.0
aF0.4
aF-0.4005681818181818
aF0.1964285714285714
aF-0.05000000000000001
aF0.33999999999999997
aF0.0
aF-0.1125
aF0.0
aF0.0
aF0.29583333333333334
aF0.09999999999999998
aF0.0
aF0.29375000000000007
aF-0.25
aF0.0
aF0.0
aF0.43333333333333335
aF0.0
aF0.35
aF0.0
aF0.14999999999999997
aF-0.5
aF0.75
aF-0.225
aF-0.4
aF0.2681818181818182
aF0.4
aF0.0
aF0.8
aF0.20000000000000004
aF0.0
aF0.0
asS'Clippers'
p19
(lp20
F0.0
aF0.0
aF0.3125
aF-0.5
aF-0.5
aF0.2416666666666667
aF0.0
aF0.1
aF0.0
aF-0.4
aF0.05000000000000002
aF0.23148148148148148
aF0.0
aF0.0
aF0.5428571428571429
aF0.45
aF0.6
aF-0.15925925925925927
aF0.0
aF0.0
aF0.0
aF0.0
aF0.0
aF0.0
aF0.0
aF-0.4
aF0.0
aF-0.2
aF0.0
aF0.8
aF0.0
aF0.0
aF0.0
aF-0.4
aF0.0
aF0.184375
aF0.21632653061224488
aF0.5166666666666666
aF0.0
aF0.1
aF-0.5666666666666668
aF0.5
aF0.0
aF-0.4
aF0.0
aF0.0
aF0.5
aF0.5
aF0.0
aF0.65
aF0.0
aF0.0
aF-0.5
aF0.125
aF-0.2
aF0.0
aF0.07083333333333335
aF0.4
aF0.0
aF0.33095238095238094
aF0.0
aF0.0
aF0.25
aF0.26633522727272724
aF0.08333333333333333
aF0.0
aF0.0
aF-0.14375
aF0.0
aF0.0
aF0.0
aF0.453125
aF0.16666666666666666
aF0.0
aF-0.05
aF0.0
aF0.0
aF0.0
aF0.05833333333333335
aF-0.125
aF0.0
aF0.0
aF0.0
aF0.17500000000000002
aF0.0
aF0.0
aF0.0
aF0.0
aF0.0
aF0.0
aF0.0
aF0.1
aF0.35000000000000003
aF0.25
aF0.0
aF0.0
aF-0.2
aF0.0
aF0.0
aF0.0
aF0.0
aF0.0
aF0.2833333333333333
aF0.0
aF0.0
aF0.13636363636363635
aF0.0
aF0.0
aF0.1
aF0.5
aF0.15
aF0.0
aF0.2515151515151515
aF0.0
aF0.0
aF0.0
aF0.0
aF0.0
aF0.0
aF0.0
aF0.3125
aF-0.5
aF-0.5
aF0.2416666666666667
aF0.0
aF-0.4625
aF0.0
aF-0.2
aF0.0
aF0.175
aF0.05000000000000002
aF0.23148148148148148
aF0.0
aF0.0
aF0.5428571428571429
aF0.45
aF0.6
aF-0.15925925925925927
aF0.0
aF0.0
aF0.0
aF0.0
aF0.0
aF0.0
aF0.0
aF-0.4
aF0.0
aF0.0
aF0.8
aF0.0
aF0.0
aF0.0
aF-0.4
aF0.0
aF0.184375
aF0.21632653061224488
aF0.5166666666666666
aF0.0
aF0.1
aF-0.5666666666666668
aF0.5
aF0.0
aF-0.4
aF0.0
aF0.0
aF0.5
aF0.5
aF0.0
aF0.65
aF0.0
aF0.0
aF-0.5
aF0.125
aF-0.2
aF0.0
aF0.07083333333333335
aF0.4
aF0.0
aF0.0
aF0.0
aF0.25
aF0.26633522727272724
aF0.08333333333333333
aF0.0
aF0.0
aF-0.14375
aF0.0
aF0.0
aF0.0
aF0.453125
aF0.16666666666666666
aF0.0
aF-0.05
aF0.0
aF0.0
aF0.0
aF0.05833333333333335
aF-0.125
aF0.0
aF0.0
aF0.0
aF0.17500000000000002
aF0.0
aF0.0
aF0.0
aF0.0
aF0.0
aF0.0
aF0.0
aF0.1
aF0.35000000000000003
aF0.25
aF0.0
aF0.0
aF-0.2
aF0.0
aF0.0
aF0.0
aF0.0
aF0.0
aF0.2833333333333333
aF0.0
aF0.0
aF0.13636363636363635
aF0.0
aF0.0
aF0.1
aF0.5
aF0.15
aF0.0
aF0.2515151515151515
aF0.0
aF0.0
aF0.0
aF0.0
aF0.0
asS'Bulls'
p21
(lp22
F0.0
aF0.41250000000000003
aF0.0
aF0.0
aF0.38316761363636365
aF0.0
aF0.0
aF0.0
aF0.25
aF0.0
aF0.0
aF0.41875
aF0.6
aF0.0
aF0.046875
aF0.0
aF0.0
aF0.0
aF0.0
aF0.0
aF0.0
aF0.0
aF0.0
aF0.13336363636363635
aF0.12
aF0.0
aF0.0
aF0.25
aF0.23611111111111108
aF0.18333333333333338
aF0.4666666666666667
aF0.2857142857142857
aF0.0
aF-0.15625
aF-0.4
aF0.0
aF0.2
aF0.0
aF-0.1
aF0.0
aF0.0
aF0.0
aF0.0
aF0.0
aF0.0
aF0.0
aF0.0
aF0.25
aF0.0
aF0.0
aF0.0
aF0.0
aF0.625
aF0.375
aF0.0
aF0.5
aF0.24444444444444446
aF0.0
aF0.08124999999999999
aF0.0
aF-0.6
aF0.0
aF0.0
aF0.625
aF0.3333333333333333
aF0.5
aF0.08
aF0.5
aF0.0
aF0.0
aF-0.125
aF-0.25
aF0.0
aF0.0
aF0.45
aF0.390625
aF-0.07669211647727273
aF0.5
aF0.0
aF0.0
aF-0.75
aF0.2142857142857143
aF0.16266233766233765
aF0.05909090909090909
aF0.0
aF0.0
aF0.0
aF0.0
aF-0.1357142857142857
aF0.0
aF0.3621212121212121
aF0.4
aF0.0
aF0.0
aF0.0
aF0.0
aF-0.060416666666666674
aF0.0
aF0.0
aF0.0
aF-0.10357142857142859
aF0.1
aF0.0
aF-0.13181818181818183
aF0.07499999999999997
aF0.0
aF0.06458333333333334
aF0.0
aF0.7
aF0.0
aF-0.5
aF0.25
aF0.0
aF0.0
aF-0.19444444444444448
aF0.0
aF0.0
aF0.25
aF0.2340909090909091
aF0.0
aF0.41250000000000003
aF0.0
aF0.0
aF0.38316761363636365
aF0.0
aF0.0
aF0.0
aF0.25
aF0.0
aF0.0
aF0.41875
aF0.6
aF0.0
aF0.046875
aF0.0
aF0.0
aF0.0
aF0.0
aF0.0
aF0.0
aF0.0
aF0.0
aF0.13336363636363635
aF0.12
aF0.0
aF0.0
aF0.25
aF0.23611111111111108
aF0.18333333333333338
aF0.4666666666666667
aF0.2857142857142857
aF0.0
aF-0.15625
aF-0.4
aF0.0
aF0.2
aF0.0
aF-0.1
aF0.0
aF0.0
aF0.0
aF0.0
aF0.0
aF0.0
aF0.0
aF0.0
aF0.25
aF0.0
aF0.0
aF0.0
aF0.0
aF0.625
aF0.375
aF0.0
aF-0.16666666666666666
aF-0.15
aF0.36
aF0.0
aF0.0
aF0.390625
aF0.0
aF0.5
aF0.24444444444444446
aF0.0
aF0.08124999999999999
aF0.0
aF-0.6
aF0.0
aF0.0
aF0.625
aF0.3333333333333333
aF0.5
aF0.08
aF0.5
aF0.0
aF0.0
aF-0.125
aF-0.25
aF0.0
aF0.0
aF0.45
aF0.390625
aF-0.07669211647727273
aF0.5
aF0.0
aF0.0
aF-0.75
aF0.2142857142857143
aF0.16266233766233765
aF0.05909090909090909
aF0.0
aF0.0
aF0.0
aF0.0
aF-0.1357142857142857
aF0.0
aF0.3621212121212121
aF0.4
aF0.0
aF0.0
aF0.0
aF0.0
aF-0.060416666666666674
aF0.0
aF0.0
aF0.0
aF-0.10357142857142859
aF0.1
aF0.0
aF-0.13181818181818183
aF0.07499999999999997
aF0.0
aF0.06458333333333334
aF0.0
aF0.7
aF0.0
aF-0.5
aF0.25
aF0.0
asS'Nets'
p23
(lp24
F0.0
aF0.8
aF0.0
aF0.0
aF0.2857142857142857
aF0.8
aF0.0
aF0.0
aF0.0
aF0.0
aF0.0
aF0.0
aF0.0
aF0.0
aF0.5
aF0.0
aF0.7
aF0.3125
aF0.0
aF0.0
aF0.5
aF0.0
aF-0.15555555555555559
aF0.0
aF0.0
aF0.0
aF0.4
aF0.0
aF0.8
aF0.0
aF0.0
aF0.5666666666666667
aF0.0
aF-0.12142857142857144
aF0.5
aF0.0
aF-0.14444444444444443
aF-0.025
aF0.7
aF0.3
aF0.0
aF-0.15000000000000002
aF0.0
aF0.15000000000000002
aF0.0
aF0.2
aF0.0
aF0.0
aF0.0
aF0.0
aF0.0
aF0.8
aF0.0
aF0.10000000000000002
aF0.0
aF0.0
aF0.0
aF-0.08333333333333333
aF0.0
aF0.078125
aF0.0
aF-0.125
aF-0.16666666666666666
aF0.029166666666666646
aF0.0
aF0.0
aF0.1
aF0.24285714285714285
aF-0.2159090909090909
aF0.1
aF-0.1
aF0.45
aF0.0
aF-0.6
aF0.0
aF0.0
aF0.2708333333333333
aF0.0
aF0.0
aF0.0
aF0.0
aF0.0
aF0.0
aF0.8
aF0.0
aF0.0
aF0.2857142857142857
aF0.8
aF0.0
aF0.0
aF0.0
aF0.0
aF0.0
aF0.0
aF0.0
aF0.0
aF0.5
aF0.0
aF0.7
aF0.3125
aF0.0
aF0.0
aF0.5
aF0.0
aF-0.15555555555555559
aF0.0
aF0.0
aF0.3
aF0.0
aF0.3
aF1.0
aF-0.029166666666666657
aF0.0
aF-0.6
aF0.0
aF0.18
aF0.0
aF0.0
aF0.8
aF0.0
aF0.0
aF0.8
aF0.0
aF0.0
aF0.5666666666666667
aF0.0
aF-0.12142857142857144
aF0.5
aF0.0
aF-0.14444444444444443
aF-0.025
aF0.7
aF0.3
aF0.0
aF-0.15000000000000002
aF0.0
aF0.15000000000000002
aF0.0
aF0.2
aF0.0
aF0.0
aF0.0
aF0.0
aF0.0
aF0.8
aF0.0
aF0.10000000000000002
aF0.0
aF0.0
aF0.0
aF-0.08333333333333333
aF0.0
aF0.078125
aF0.0
aF-0.125
aF-0.16666666666666666
aF0.029166666666666646
aF0.0
aF0.0
aF0.1
aF0.24285714285714285
aF-0.2159090909090909
asS'Heat'
p25
(lp26
F0.0
aF0.4
aF0.0875
aF-0.625
aF0.0
aF0.0
aF-0.4
aF0.0
aF0.0
aF0.0
aF0.0
aF0.0
aF0.0
aF0.9
aF0.0
aF0.0
aF1.0
aF0.0
aF0.0
aF0.0
aF0.0
aF0.0
aF0.26000000000000006
aF0.0
aF0.125
aF0.0
aF0.0
aF0.0
aF0.0
aF0.0
aF0.5
aF0.0
aF1.0
aF0.24285714285714285
aF0.4
aF-0.175
aF0.1
aF0.0
aF0.0
aF0.0
aF0.0
aF0.0
aF0.0
aF0.0
aF0.0
aF0.0
aF0.875
aF0.0
aF0.5
aF0.25
aF0.5785714285714286
aF0.0
aF1.0
aF0.0
aF0.0
aF0.1372685185185185
aF0.2
aF0.021590909090909077
aF0.0
aF0.11875
aF0.0
aF-0.4
aF0.3055555555555556
aF0.0
aF0.19999999999999998
aF0.0
aF0.0
aF0.0
aF0.3
aF0.2
aF0.4
aF0.0
aF0.0
aF0.0
aF0.0
aF0.0
aF-0.25
aF0.0
aF0.2013494318181818
aF-0.4
aF0.0
aF0.15
aF0.4
aF-0.2
aF0.0
aF0.45
aF0.13636363636363635
aF0.0
aF0.4
aF0.0875
aF-0.625
aF0.0
aF0.0
aF-0.4
aF0.0
aF0.0
aF0.0
aF0.0
aF0.0
aF0.0
aF0.9
aF0.0
aF0.0
aF1.0
aF0.0
aF0.0
aF0.0
aF0.0
aF0.0
aF0.26000000000000006
aF0.0
aF0.125
aF0.4
aF-0.175
aF0.1
aF0.0
aF0.0
aF0.0
aF0.0
aF0.0
aF0.0
aF0.0
aF0.0
aF0.0
aF0.875
aF0.0
aF0.5
aF0.25
aF0.5785714285714286
aF0.0
aF1.0
aF0.0
aF0.0
aF0.1372685185185185
aF0.2
aF0.021590909090909077
aF0.0
aF0.11875
aF0.0
aF-0.4
aF0.3055555555555556
aF0.0
aF0.19999999999999998
aF0.0
aF0.0
aF0.0
aF0.3
aF0.2
aF0.4
aF0.0
aF0.0
aF0.0
aF0.0
aF0.0
aF-0.25
aF0.0
aF0.2013494318181818
aF-0.4
aF0.0
aF0.15
aF0.4
aF-0.2
aF0.0
asS'Trail Blazers'
p27
(lp28
F0.16818181818181818
aF-0.125
aF0.0
aF0.0
aF0.0
aF0.13636363636363635
aF0.3625
aF0.0
aF0.0
aF0.0
aF0.5
aF0.3852272727272727
aF0.125
aF-0.2
aF-0.6
aF0.43333333333333335
aF0.0
aF0.09765625
aF0.2
aF0.33666666666666667
aF-0.025
aF0.0
aF0.0
aF0.43333333333333335
aF0.5800000000000001
aF0.13636363636363635
aF0.016666666666666673
aF0.45412698412698416
aF0.26666666666666666
aF0.0
aF0.434375
aF0.8
aF0.0
aF0.0
aF-0.45
aF0.06666666666666667
aF0.0
aF0.0
aF0.1971861471861472
aF0.0
aF0.5
aF0.020833333333333332
aF-0.4
aF0.0
aF-0.4
aF0.25
aF0.25
aF-0.4
aF-0.07500000000000001
aF-0.4
aF0.25
aF0.5071428571428571
aF1.0
aF-0.2
aF0.16818181818181818
aF0.0
aF0.3715909090909091
aF0.05
aF-1.0
aF0.25
aF0.45
aF0.29464285714285715
aF0.0
aF0.25
aF0.0
aF0.0
aF0.25
aF0.20833333333333334
aF0.25
aF0.0
aF0.5
aF0.5166666666666667
aF0.0
aF-0.13020833333333331
aF0.0
aF0.5428571428571429
aF0.35
aF0.4
aF0.2
aF0.5359375000000001
aF0.0
aF-0.2
aF0.4000000000000001
aF0.7
aF0.28125
aF0.0
aF0.04999999999999999
aF0.5
aF-0.17500000000000002
aF0.1375
aF0.0
aF0.0
aF0.25
aF0.4
aF0.45
aF0.0
aF0.6
aF0.13636363636363635
aF0.0
aF0.3
aF0.8
aF0.0
aF0.0
aF0.24285714285714285
aF0.8
aF0.25333333333333335
aF0.0
aF0.35
aF-0.05555555555555555
aF0.0
aF0.0
aF0.0
aF0.0
aF0.0
aF0.0
aF0.0
aF0.0
aF0.28571428571428575
aF-0.18611111111111112
aF0.0
aF0.0
aF0.25
aF-0.15625
aF0.21818181818181817
aF0.23333333333333336
aF-0.12000000000000002
aF0.09999999999999998
aF0.3715909090909091
aF0.1517857142857143
aF-0.06666666666666667
aF0.0
aF0.3
aF0.5
aF0.0
aF0.625
aF0.0
aF0.8
aF0.25
aF0.0
aF0.0
aF-0.32954545454545453
aF0.0
aF0.55
aF0.4125
aF0.19999999999999998
aF-0.06565656565656565
aF0.55
aF-0.08333333333333333
aF0.24375
aF0.16666666666666666
aF-0.13181818181818183
aF0.16818181818181818
aF-0.125
aF0.0
aF0.0
aF0.0
aF0.13636363636363635
aF0.3625
aF0.0
aF0.0
aF0.0
aF0.5
aF0.3852272727272727
aF0.125
aF-0.2
aF-0.6
aF0.43333333333333335
aF0.0
aF0.09765625
aF0.2
aF0.33666666666666667
aF-0.025
aF0.0
aF0.0
aF0.43333333333333335
aF0.5800000000000001
aF0.13636363636363635
aF0.016666666666666673
aF0.45412698412698416
aF0.26666666666666666
aF0.0
aF0.434375
aF0.8
aF0.0
aF0.0
aF-0.45
aF0.06666666666666667
aF0.0
aF0.0
aF0.1971861471861472
aF0.0
aF0.5
aF0.020833333333333332
aF-0.4
aF0.0
aF-0.4
aF0.25
aF0.25
aF-0.4
aF-0.07500000000000001
aF-0.4
aF0.25
aF0.5071428571428571
aF-0.2
aF0.16818181818181818
aF0.0
aF0.3715909090909091
aF0.05
aF-1.0
aF0.25
aF0.45
aF0.29464285714285715
aF0.0
aF0.25
aF0.0
aF0.0
aF0.25
aF0.20833333333333334
aF0.25
aF0.0
aF0.5
aF0.5166666666666667
aF0.0
aF-0.13020833333333331
aF0.0
aF0.5428571428571429
aF0.35
aF0.4
aF0.2
aF0.5359375000000001
aF0.0
aF-0.2
aF0.4000000000000001
aF0.7
aF0.28125
aF0.0
aF0.04999999999999999
aF0.5
aF-0.17500000000000002
aF0.1375
aF0.0
aF0.0
aF0.25
aF0.4
aF0.45
aF0.0
aF0.6
aF0.13636363636363635
aF0.0
aF0.3
aF0.8
aF0.0
aF0.0
aF0.24285714285714285
aF0.8
aF0.25333333333333335
aF0.35
aF-0.05555555555555555
aF0.0
aF0.0
aF0.0
aF0.0
aF0.0
aF0.0
aF0.0
aF0.0
aF0.28571428571428575
aF-0.18611111111111112
aF0.0
aF0.0
aF0.25
aF-0.15625
aF0.21818181818181817
aF0.23333333333333336
aF-0.12000000000000002
aF0.09999999999999998
aF0.3715909090909091
aF0.1517857142857143
aF-0.06666666666666667
aF0.0
aF0.3
aF0.5
aF0.0
aF0.625
aF0.0
aF0.8
aF0.25
aF0.0
aF0.0
aF-0.32954545454545453
aF0.0
aF0.55
aF0.4125
aF0.19999999999999998
aF-0.06565656565656565
aF0.55
aF-0.08333333333333333
aF0.24375
aF0.16666666666666666
aF-0.13181818181818183
asS'Thunder'
p29
(lp30
F0.0
aF0.0
aF0.25
aF0.55
aF-0.625
aF0.22142857142857142
aF-0.13333333333333333
aF0.21428571428571427
aF0.3666666666666667
aF0.0
aF0.0
aF0.4
aF0.0
aF0.1
aF0.1
aF0.1
aF0.0
aF0.0
aF0.35
aF0.0
aF0.5
aF0.5681818181818181
aF-0.15555555555555556
aF0.5
aF0.4375
aF-0.0851851851851852
aF0.5
aF0.0
aF0.0
aF0.75
aF0.475
aF0.06818181818181818
aF0.0
aF0.0
aF0.16
aF0.0
aF0.6
aF-0.625
aF0.0
aF0.0
aF0.21428571428571427
aF0.0
aF0.05084325396825397
aF0.9
aF0.4787878787878788
aF1.0
aF0.0
aF0.0
aF0.0
aF0.25
aF0.55
aF-0.625
aF0.22142857142857142
aF-0.13333333333333333
aF0.21428571428571427
aF0.3666666666666667
aF0.0
aF0.0
aF0.4
aF0.0
aF0.1
aF0.1
aF0.1
aF0.0
aF0.0
aF0.35
aF0.0
aF0.5
aF0.5681818181818181
aF-0.15555555555555556
aF0.5
aF0.4375
aF-0.0851851851851852
aF0.5
aF0.0
aF0.0
aF0.75
aF0.475
aF0.06818181818181818
aF0.0
aF0.0
aF0.16
aF0.0
aF0.6
aF-0.625
aF0.0
aF0.0
aF0.21428571428571427
aF0.0
aF0.05084325396825397
aF0.9
aF0.4787878787878788
aF1.0
aF0.0
asS'Celtics'
p31
(lp32
F0.36328125
aF0.0
aF0.0
aF0.13636363636363635
aF-0.4
aF0.0
aF0.0
aF-0.8
aF0.0
aF1.0
aF0.0
aF0.75
aF0.0
aF0.0
aF0.2333333333333333
aF0.5875
aF0.30000000000000004
aF0.0
aF0.9765625
aF0.5
aF0.4
aF0.5
aF0.15
aF0.0
aF0.375
aF-0.08333333333333333
aF0.13636363636363635
aF-0.03606770833333331
aF0.14285714285714285
aF0.15000000000000002
aF-0.038095238095238106
aF-0.8
aF0.0
aF0.03333333333333336
aF0.5
aF0.0
aF-0.17857142857142858
aF0.325
aF0.0
aF0.0
aF0.11666666666666665
aF0.0
aF0.55
aF0.0
aF0.0
aF0.0
aF0.8
aF0.0
aF0.0
aF0.7
aF0.4
aF0.65
aF0.003174603174603177
aF0.07999999999999999
aF0.0
aF0.25
aF0.6
aF0.2857142857142857
aF0.0
aF0.0
aF0.0
aF0.2
aF0.7
aF0.04999999999999999
aF-0.4625
aF-0.78125
aF0.0
aF0.0
aF0.0
aF-0.375
aF0.4166666666666667
aF-0.17291666666666666
aF0.0
aF0.0625
aF0.15
aF0.13636363636363635
aF0.8
aF0.36328125
aF-0.1
aF0.0
aF0.2
aF0.4166666666666667
aF-0.18124999999999997
aF0.06875
aF0.5625
aF0.0
aF0.0
aF0.0625
aF0.0
aF0.5
aF-0.1
aF0.36328125
aF0.0
aF0.0
aF0.13636363636363635
aF-0.4
aF0.0
aF0.0
aF-0.8
aF0.0
aF1.0
aF0.0
aF0.75
aF0.0
aF0.0
aF0.2333333333333333
aF0.5875
aF0.30000000000000004
aF0.0
aF0.9765625
aF0.5
aF0.4
aF0.5
aF0.15
aF0.0
aF0.375
aF-0.08333333333333333
aF0.13636363636363635
aF-0.03606770833333331
aF0.14285714285714285
aF0.15000000000000002
aF-0.038095238095238106
aF-0.8
aF0.0
aF0.03333333333333336
aF0.5
aF0.0
aF-0.17857142857142858
aF0.325
aF0.0
aF0.0
aF0.11666666666666665
aF0.0
aF0.55
aF0.0
aF0.0
aF0.0
aF0.8
aF0.0
aF0.0
aF0.0
aF0.25
aF0.2
aF-0.125
aF0.24666666666666667
aF0.04999999999999999
aF0.29814814814814816
aF0.2
aF0.7
aF0.4
aF0.65
aF0.003174603174603177
aF0.07999999999999999
aF0.0
aF0.25
aF0.6
aF0.2857142857142857
aF0.0
aF0.0
aF0.0
aF0.2
aF0.7
aF0.04999999999999999
aF-0.4625
aF-0.78125
aF0.0
aF0.0
aF0.0
aF-0.375
aF0.4166666666666667
aF-0.17291666666666666
aF0.0
aF0.0625
aF0.15
aF0.13636363636363635
aF0.8
aF0.36328125
aF-0.1
aF0.0
aF0.2
aF0.4166666666666667
aF-0.18124999999999997
aF0.06875
aF0.5625
aF0.0
asS'Magic'
p33
(lp34
F0.0
aF0.5
aF0.125
aF1.0
aF0.0
aF0.9
aF0.15
aF0.39999999999999997
aF0.0
aF0.0
aF0.0
aF0.43333333333333335
aF0.0
aF0.0
aF0.20138888888888887
aF0.4
aF0.3333333333333333
aF0.16666666666666666
aF0.65
aF0.4777777777777778
aF0.36587301587301585
aF0.3416666666666667
aF0.0
aF0.5
aF0.0
aF0.32
aF0.020000000000000007
aF0.0
aF0.0
aF0.0
aF0.4000000000000001
aF0.01499999999999999
aF0.0
aF0.0
aF0.0
aF0.4083333333333333
aF0.9765625
aF0.46875
aF0.5
aF0.5
aF0.25
aF0.2857142857142857
aF0.3181818181818182
aF0.0
aF0.5
aF0.15
aF0.25
aF0.0
aF0.31666666666666665
aF0.325
aF0.0
aF0.04999999999999999
aF0.04999999999999999
aF-0.14285714285714285
aF-0.45
aF0.0
aF0.5
aF0.0
aF0.0
aF0.0
aF0.0
aF0.0
aF0.3104166666666667
aF0.0
aF0.5
aF0.5
aF0.5
aF0.625
aF-0.2833333333333333
aF-0.040000000000000015
aF0.0
aF0.050000000000000044
aF0.19999999999999998
aF0.125
aF-0.6
aF0.475
aF0.2
aF0.35
aF0.0
aF-0.15555555555555559
aF0.0
aF0.5
aF0.0
aF-0.30000000000000004
aF0.425
aF0.15
aF0.0722222222222222
aF-0.008333333333333331
aF0.0722222222222222
aF0.0
aF0.0
aF0.29000000000000004
aF0.3194444444444444
aF0.5
aF0.22083333333333333
aF0.2333333333333333
aF0.5
aF0.0
aF0.25
aF0.6
aF0.0
aF0.5083333333333333
aF0.6
aF0.6
aF0.9
aF-0.6999999999999998
aF0.0
aF-0.284375
aF0.30625
aF-0.15
aF0.0
aF0.4458333333333333
aF-0.0625
aF0.19999999999999998
aF0.0
aF0.5
aF0.125
aF1.0
aF0.0
aF0.9
aF0.15
aF0.39999999999999997
aF0.0
aF0.0
aF0.0
aF0.43333333333333335
aF0.0
aF0.0
aF0.20138888888888887
aF0.4
aF0.3333333333333333
aF0.16666666666666666
aF0.65
aF0.4777777777777778
aF0.36587301587301585
aF0.3416666666666667
aF0.0
aF0.5
aF0.0
aF0.32
aF0.020000000000000007
aF0.0
aF0.0
aF0.0
aF0.4000000000000001
aF0.01499999999999999
aF0.0
aF0.0
aF0.0
aF0.4083333333333333
aF0.9765625
aF0.46875
aF0.5
aF0.5
aF0.25
aF0.2857142857142857
aF0.3181818181818182
aF0.0
aF0.5
aF0.15
aF0.25
aF0.0
aF0.31666666666666665
aF0.325
aF0.0
aF0.04999999999999999
aF0.04999999999999999
aF-0.14285714285714285
aF-0.45
aF0.0
aF0.5
aF0.0
aF0.0
aF0.0
aF0.0
aF0.0
aF0.3104166666666667
aF0.0
aF0.5
aF0.5
aF0.5
aF0.625
aF-0.2833333333333333
aF-0.040000000000000015
aF0.0
aF0.050000000000000044
aF0.19999999999999998
aF0.125
aF-0.6
aF0.475
aF0.2
aF0.35
aF0.0
aF-0.15555555555555559
aF0.0
aF0.5
aF0.0
aF-0.30000000000000004
aF0.425
aF0.15
aF0.0722222222222222
aF-0.008333333333333331
aF0.0722222222222222
aF0.0
aF0.0
aF0.29000000000000004
aF0.3194444444444444
aF0.5
aF0.22083333333333333
aF0.2333333333333333
aF0.5
aF0.0
aF0.25
aF0.6
aF0.0
aF0.5083333333333333
aF0.6
aF0.6
aF0.9
aF-0.6999999999999998
aF0.0
aF-0.284375
aF0.30625
aF-0.15
aF0.0
aF0.4458333333333333
aF-0.0625
aF0.19999999999999998
asS'Mavericks'
p35
(lp36
F0.0
aF-1.0
aF0.4
aF-0.2652777777777778
aF0.0
aF0.0
aF-0.078125
aF0.1
aF0.0
aF0.0
aF0.24285714285714285
aF0.04722222222222221
aF0.125
aF0.1486111111111111
aF0.0
aF0.0
aF0.0
aF0.7
aF0.0
aF0.0
aF-0.2
aF0.0
aF0.0
aF0.34285714285714286
aF0.0
aF2.7755575615628914e-17
aF0.0
aF0.0
aF0.0
aF0.5
aF0.0
aF0.0
aF0.0
aF0.0
aF-1.0
aF0.75
aF-0.0277777777777778
aF0.31500000000000006
aF0.0
aF-0.15000000000000002
aF-0.16666666666666666
aF0.0
aF0.1
aF0.20625
aF0.0
aF0.3
aF0.0
aF0.2583333333333333
aF0.6666666666666666
aF0.0
aF0.0
aF0.5
aF0.0
aF0.0
aF0.8
aF-0.1
aF0.0
aF-0.4
aF0.15
aF0.0
aF-0.2
aF0.0
aF0.0
aF0.25
aF0.7999999999999999
aF0.20500000000000002
aF0.0
aF0.0
aF-0.16666666666666666
aF0.65
aF1.0
aF-0.05
aF-0.05
aF0.0
aF0.0
aF0.26666666666666666
aF-0.1
aF0.05
aF0.5028409090909091
aF0.0
aF0.0
aF0.0
aF0.0
aF0.25
aF0.0
aF-0.25
aF0.0
aF0.0
aF0.0
aF0.125
aF0.5126953125
aF0.0
aF0.0
aF0.0
aF0.0
aF0.0
aF0.0
aF-0.3888888888888889
aF0.0
aF0.6000000000000001
aF0.0
aF0.7
aF0.046666666666666655
aF0.10000000000000002
aF-0.8
aF0.2857142857142857
aF0.5625
aF0.5
aF0.2681818181818182
aF0.0
aF0.4
aF-0.4
aF0.0
aF0.0
aF0.0
aF0.19999999999999998
aF0.0
aF0.0
aF0.0
aF-0.2652777777777778
aF0.35
aF-0.1
aF0.5978571428571429
aF0.2
aF0.0
aF0.0
aF0.0
aF-0.13181818181818183
aF-0.2
aF0.3458333333333333
aF0.0
aF0.3
aF0.04722222222222221
aF-0.15000000000000002
aF0.1486111111111111
aF0.0
aF0.0
aF0.0
aF0.2
aF0.1
aF0.025
aF0.0
aF0.0
aF-0.13333333333333333
aF-0.2916666666666667
aF0.0
aF0.09444444444444444
aF0.0
aF0.016666666666666646
aF0.7
aF-0.2857142857142857
aF0.0
aF0.0
aF0.5
aF0.0
aF-0.2
aF-0.4
aF0.0
aF-1.0
aF0.0
aF-0.2916666666666667
aF0.7
aF0.0
aF0.6
aF0.03333333333333333
aF0.0
aF0.25
aF0.0
aF0.0
aF-0.6999999999999998
aF0.2857142857142857
aF0.0
aF-0.13333333333333333
aF0.0
aF0.25
aF0.45
aF-0.05499999999999988
aF0.0
aF-0.375
aF0.0
aF0.0
aF-1.0
aF0.4
aF-0.2652777777777778
aF0.0
aF0.0
aF-0.078125
aF0.1
aF0.0
aF0.0
aF0.24285714285714285
aF0.04722222222222221
aF0.125
aF0.1486111111111111
aF0.0
aF0.0
aF0.0
aF0.7
aF0.0
aF0.0
aF-0.2
aF0.0
aF0.0
aF0.34285714285714286
aF0.0
aF2.7755575615628914e-17
aF0.0
aF0.0
aF0.0
aF0.5
aF0.0
aF0.0
aF0.0
aF0.0
aF-1.0
aF0.75
aF-0.0277777777777778
aF0.31500000000000006
aF0.0
aF-0.15000000000000002
aF-0.16666666666666666
aF0.0
aF0.1
aF0.20625
aF0.0
aF0.3
aF0.0
aF0.2583333333333333
aF0.6666666666666666
aF0.0
aF0.0
aF0.5
aF0.0
aF0.0
aF0.8
aF-0.1
aF0.0
aF-0.4
aF0.15
aF0.0
aF-0.2
aF0.0
aF0.0
aF0.25
aF0.7999999999999999
aF0.20500000000000002
aF0.0
aF0.0
aF-0.16666666666666666
aF0.65
aF1.0
aF-0.05
aF-0.05
aF0.0
aF0.0
aF0.26666666666666666
aF-0.1
aF0.05
aF0.5028409090909091
aF0.0
aF0.0
aF0.0
aF0.0
aF0.25
aF0.0
aF-0.25
aF0.0
aF0.0
aF0.0
aF0.125
aF0.5126953125
aF0.0
aF-0.2
aF1.0
aF-0.7
aF0.20000000000000004
aF0.525
aF0.0
aF0.0
aF0.0
aF0.0
aF0.2
aF0.17142857142857143
aF0.0
aF0.0
aF0.0
aF0.0
aF0.0
aF0.0
aF-0.3888888888888889
aF0.0
aF0.6000000000000001
aF0.0
aF0.7
aF0.046666666666666655
aF0.10000000000000002
aF-0.8
aF0.2857142857142857
aF0.5625
aF0.5
aF0.2681818181818182
aF0.0
aF0.4
aF-0.4
aF0.0
aF0.0
aF0.0
aF0.19999999999999998
aF0.0
aF0.0
aF0.0
aF-0.2652777777777778
aF0.35
aF-0.1
aF0.5978571428571429
aF0.2
aF0.0
aF0.0
aF0.0
aF-0.13181818181818183
aF-0.2
aF0.3458333333333333
aF0.0
aF0.3
aF0.04722222222222221
aF-0.15000000000000002
aF0.1486111111111111
aF0.0
aF0.0
aF0.0
aF0.2
aF0.1
aF0.025
aF0.0
aF0.0
aF-0.13333333333333333
aF-0.2916666666666667
aF0.0
aF0.09444444444444444
aF0.0
aF0.016666666666666646
aF0.7
aF-0.2857142857142857
aF0.0
aF0.0
aF0.5
aF0.0
aF-0.2
aF-0.4
aF0.0
aF-1.0
aF0.0
aF-0.2916666666666667
aF0.7
aF0.0
aF0.6
aF0.03333333333333333
aF0.0
aF0.25
aF0.0
aF0.0
asS'Pelicans'
p37
(lp38
F0.0
aF-0.04999999999999999
aF0.0
aF0.7
aF-0.2
aF0.0
aF0.0
aF-0.2
aF-0.2
aF0.4
aF0.4
aF-0.4
aF0.25
aF-0.4
aF-0.4
aF0.0
aF0.0
aF-0.4
aF0.0
aF0.13636363636363635
aF0.0
aF0.0
aF0.0
aF0.75
aF0.2
aF0.0
aF0.34545454545454546
aF0.0
aF1.0
aF0.0
aF0.0
aF-0.65
aF-0.6000000000000001
aF0.29444444444444445
aF0.5
aF0.8
aF-0.04166666666666667
aF0.65
aF0.1
aF0.1875
aF0.12184343434343432
aF0.0
aF0.0
aF0.8
aF0.0
aF0.0
aF0.0
aF0.0
aF0.0
aF0.0
aF0.0
aF0.0
aF0.5
aF0.5
aF0.0
aF0.0
aF0.0
aF0.0
aF0.0
aF0.34375
aF-0.4
aF0.1
aF0.25
aF0.43333333333333335
aF0.5111111111111111
aF0.5
aF-0.13181818181818183
aF0.0
aF0.3333333333333333
aF0.09999999999999998
aF0.8
aF0.43333333333333335
aF0.0
aF-0.25
aF0.0
aF0.3181818181818182
aF0.0
aF0.07604166666666667
aF0.6000000000000001
aF0.4388888888888889
aF0.125
aF0.45
aF0.0
aF0.13333333333333333
aF0.07878787878787878
aF-0.5571428571428572
aF0.10714285714285714
aF0.0
aF0.0
aF0.0
aF0.2
aF0.4
aF0.0
aF0.2
aF0.45
aF0.0
aF-0.13333333333333333
aF0.0
aF0.0
aF0.0
aF0.13636363636363635
aF0.16666666666666666
aF0.0
aF0.022869693963443932
aF-0.16666666666666666
aF-0.2
aF-0.13181818181818183
aF3.700743415417188e-17
aF-0.2277777777777778
aF0.4
aF-0.13333333333333333
aF-0.2777777777777778
aF-0.1
aF0.0
aF0.0
aF0.0
aF0.6549479166666666
aF0.0
aF0.0
aF-0.25
aF0.0
aF-0.4
aF0.0
aF0.0
aF-0.8
aF-0.4
aF0.0
aF-0.04999999999999999
aF0.0
aF0.7
aF-0.2
aF0.0
aF0.0
aF-0.2
aF-0.2
aF0.4
aF0.4
aF-0.4
aF0.25
aF-0.4
aF-0.4
aF0.0
aF0.0
aF-0.4
aF0.0
aF0.13636363636363635
aF0.0
aF0.0
aF0.0
aF0.75
aF0.2
aF0.0
aF0.34545454545454546
aF0.0
aF1.0
aF0.0
aF0.0
aF-0.65
aF-0.6000000000000001
aF0.29444444444444445
aF0.5
aF0.8
aF-0.04166666666666667
aF0.65
aF0.1
aF0.1875
aF0.12184343434343432
aF0.0
aF0.0
aF0.8
aF0.0
aF0.0
aF0.0
aF0.0
aF0.0
aF0.0
aF0.0
aF0.0
aF0.5
aF0.5
aF-0.09583333333333333
aF0.3333333333333333
aF0.0
aF0.0
aF0.0
aF0.0
aF0.0
aF0.34375
aF-0.4
aF0.1
aF0.25
aF0.43333333333333335
aF0.5111111111111111
aF0.5
aF-0.13181818181818183
aF0.0
aF0.3333333333333333
aF0.09999999999999998
aF0.8
aF0.43333333333333335
aF0.0
aF-0.25
aF0.0
aF0.3181818181818182
aF0.0
aF0.07604166666666667
aF0.6000000000000001
aF0.4388888888888889
aF0.125
aF0.45
aF0.0
aF0.13333333333333333
aF0.07878787878787878
aF-0.5571428571428572
aF0.10714285714285714
aF0.0
aF0.0
aF0.0
aF0.2
aF0.4
aF0.0
aF0.2
aF0.45
aF0.0
aF-0.13333333333333333
aF0.0
aF0.0
aF0.0
aF0.13636363636363635
aF0.16666666666666666
aF0.0
aF0.022869693963443932
aF-0.16666666666666666
aF-0.2
aF-0.13181818181818183
aF3.700743415417188e-17
aF-0.2277777777777778
aF0.4
aF-0.13333333333333333
aF-0.2777777777777778
aF-0.1
aF0.0
aF0.0
aF0.0
aF0.6549479166666666
aF0.0
aF0.0
aF-0.25
aF0.0
aF-0.4
asS'Lakers'
p39
(lp40
F0.0
aF0.3125
aF0.4
aF0.39999999999999997
aF0.0
aF0.0
aF0.0
aF-0.5
aF0.0
aF0.0
aF-0.5
aF0.0
aF0.0
aF0.0
aF0.0
aF0.44999999999999996
aF0.0
aF0.3666666666666667
aF0.0
aF0.0
aF0.0
aF0.03541666666666666
aF0.0
aF0.2
aF-0.04999999999999999
aF0.19999999999999998
aF-0.4
aF-0.07692307692307693
aF0.0
aF0.2833333333333333
aF0.0
aF0.23148148148148148
aF0.0
aF0.175462962962963
aF0.0
aF0.0
aF0.0
aF0.0
aF-0.45
aF-0.375
aF-0.8138020833333331
aF0.0
aF0.0
aF0.04999999999999999
aF0.45
aF0.0
aF0.0
aF-0.6
aF0.0
aF0.0
aF0.5
aF0.0
aF0.0
aF0.0
aF-0.35
aF-0.5
aF-0.014374999999999999
aF0.3333333333333333
aF0.45
aF0.0
aF0.17857142857142855
aF-0.038888888888888896
aF0.45
aF-0.6
aF-0.14375
aF0.1
aF0.05000000000000001
aF0.5
aF0.0
aF0.0
aF0.45
aF0.45
aF0.1
aF0.026666666666666672
aF0.0
aF-0.27499999999999997
aF0.29333333333333333
aF0.0
aF0.0
aF0.0
aF0.0
aF0.0
aF0.3
aF0.0
aF0.0
aF0.0
aF0.0
aF0.0
aF0.0
aF0.33
aF0.75
aF0.5
aF0.0
aF0.0
aF0.0
aF0.0
aF-0.6999999999999998
aF-0.25
aF0.0
aF0.0
aF0.45
aF0.14015151515151517
aF0.0
aF0.0
aF0.0
aF0.0
aF0.3125
aF0.4
aF0.39999999999999997
aF0.0
aF0.0
aF0.0
aF-0.5
aF0.0
aF0.0
aF-0.5
aF0.0
aF0.0
aF0.0
aF0.0
aF0.8
aF0.140625
aF0.0
aF0.325
aF0.0
aF0.0
aF0.0
aF0.16666666666666666
aF-0.13333333333333333
aF0.0
aF-0.4
aF0.0
aF-0.18636363636363634
aF0.5
aF-0.09999999999999998
aF0.2
aF-0.20277777777777778
aF0.09285714285714285
aF0.3375
aF-0.375
aF-0.2
aF0.2857142857142857
aF0.0
aF0.0
aF0.26666666666666666
aF1.0
aF0.8
aF0.0
aF0.175
aF0.0
aF0.0
aF0.03541666666666666
aF0.0
aF0.2
aF-0.04999999999999999
aF0.19999999999999998
aF-0.4
aF-0.07692307692307693
aF0.0
aF-0.014374999999999999
aF0.3333333333333333
aF0.45
aF0.0
aF0.17857142857142855
aF-0.038888888888888896
aF0.45
aF-0.6
aF-0.14375
aF0.1
aF0.05000000000000001
aF0.5
aF0.0
aF0.0
aF0.45
aF0.45
aF0.1
aF0.026666666666666672
aF0.0
aF-0.27499999999999997
aF0.29333333333333333
aF0.0
aF0.0
aF0.0
aF0.0
aF0.0
aF0.3
aF0.0
aF0.0
aF0.0
aF0.0
aF0.0
aF0.0
aF0.33
aF0.75
aF0.5
aF0.0
aF0.0
aF0.0
aF0.0
aF-0.6999999999999998
aF-0.25
aF0.0
aF0.0
aF0.45
aF0.14015151515151517
aF0.0
asS'Pacers'
p41
(lp42
F0.0
aF0.056666666666666664
aF0.0
aF0.0
aF0.35
aF0.0
aF0.125
aF0.5
aF0.0
aF0.0
aF0.5
aF0.25
aF0.125
aF0.10694444444444444
aF0.375
aF0.0
aF0.0
aF0.0
aF0.0
aF-0.2
aF0.19999999999999998
aF0.0
aF0.0
aF0.0
aF-0.2
aF0.13636363636363635
aF-0.021428571428571436
aF-0.2
aF0.0
aF-0.3482142857142857
aF0.5428571428571429
aF0.375
aF0.4
aF1.0
aF0.0
aF0.0
aF0.0
aF0.0
aF0.03055555555555554
aF0.625
aF-0.0625
aF0.0
aF-0.4
aF0.0
aF0.0
aF0.0
aF0.0
aF0.0
aF0.0
aF0.0
aF0.0
aF0.0
aF0.0
aF0.15234375
aF0.0
aF0.0
aF0.0
aF0.5
aF0.0
aF0.0
aF0.0
aF0.0
aF0.0
aF-0.16
aF0.0
aF-0.2333333333333333
aF-0.0625
aF0.0
aF0.0
aF0.1375
aF0.0
aF0.5
aF0.0
aF0.0
aF0.9
aF0.0
aF0.0
aF0.0
aF0.65
aF0.0
aF0.0
aF0.0
aF0.0
aF0.0
aF0.0
aF0.0
aF-0.0125
aF0.0
aF0.0
aF0.056666666666666664
aF0.0
aF0.0
aF0.35
aF0.0
aF0.125
aF0.5
aF0.0
aF0.0
aF0.5
aF0.25
aF0.125
aF0.10694444444444444
aF0.375
aF0.0
aF0.0
aF0.0
aF0.0
aF-0.2
aF0.19999999999999998
aF0.0
aF0.0
aF0.0
aF-0.2
aF0.13636363636363635
aF-0.021428571428571436
aF-0.2
aF0.0
aF-0.3482142857142857
aF0.5428571428571429
aF0.375
aF0.4
aF1.0
aF0.0
aF0.0
aF0.0
aF0.0
aF0.03055555555555554
aF0.625
aF-0.0625
aF0.0
aF-0.4
aF0.0
aF0.0
aF0.0
aF0.0
aF0.0
aF0.0
aF0.0
aF0.0
aF0.0
aF0.0
aF0.15234375
aF0.0
aF0.0
aF0.0
aF0.5
aF0.0
aF0.0
aF0.0
aF0.0
aF0.0
aF-0.16
aF0.0
aF-0.2333333333333333
aF-0.0625
aF0.0
aF0.0
aF0.1375
aF0.0
aF0.5
aF0.0
aF0.0
aF0.9
aF0.0
aF0.0
aF0.0
aF0.65
aF0.0
aF0.0
aF0.0
aF0.0
aF0.0
aF0.0
aF0.0
aF-0.0125
aF0.0
asS'Rockets'
p43
(lp44
F0.0
aF0.0
aF0.0
aF0.3352272727272727
aF0.5
aF0.0
aF0.2
aF0.1340909090909091
aF0.0
aF0.375
aF0.0
aF1.0
aF0.30000000000000004
aF-0.17857142857142858
aF0.5
aF0.0
aF0.1
aF0.5
aF0.0
aF0.0
aF0.25
aF0.4
aF0.175
aF0.0
aF0.3255208333333333
aF0.04999999999999999
aF0.0
aF0.8
aF0.4077380952380952
aF0.0
aF0.0
aF0.0
aF0.0
aF0.0
aF0.0
aF0.0
aF0.0
aF0.0
aF0.06818181818181818
aF0.0
aF0.125
aF0.0
aF0.25
aF0.0
aF0.11249999999999999
aF0.0
aF0.0
aF-0.025000000000000022
aF0.0
aF-0.2916666666666667
aF-0.5
aF0.16666666666666666
aF-0.04999999999999999
aF0.0
aF0.8
aF0.6
aF0.27999999999999997
aF0.0
aF0.0
aF-0.5571428571428572
aF0.0
aF0.0
aF0.0
aF0.0
aF0.0
aF0.6
aF0.13636363636363635
aF0.25
aF0.0
aF0.0
aF0.0
aF0.0
aF0.0
aF0.0
aF0.9765625
aF-0.13181818181818183
aF-0.13181818181818183
aF-0.8
aF0.0
aF-0.1
aF0.0
aF0.0
aF0.0
aF-0.22121212121212122
aF0.0
aF0.0
aF0.0
aF0.3352272727272727
aF0.5
aF0.0
aF0.2
aF0.1340909090909091
aF0.0
aF0.375
aF0.0
aF1.0
aF0.30000000000000004
aF-0.17857142857142858
aF0.5
aF0.0
aF0.1
aF0.5
aF0.0
aF0.0
aF0.25
aF0.4
aF0.175
aF0.0
aF0.3255208333333333
aF0.04999999999999999
aF0.0
aF0.8
aF0.4077380952380952
aF0.0
aF0.0
aF0.0
aF0.0
aF0.0
aF0.0
aF0.0
aF0.0
aF0.0
aF0.06818181818181818
aF0.0
aF0.125
aF0.0
aF0.25
aF0.0
aF0.11249999999999999
aF0.0
aF0.0
aF-0.025000000000000022
aF0.0
aF-0.2916666666666667
aF-0.5
aF0.16666666666666666
aF-0.04999999999999999
aF0.0
aF0.8
aF0.6
aF0.27999999999999997
aF0.0
aF0.0
aF-0.5571428571428572
aF0.0
aF0.0
aF0.0
aF0.0
aF0.0
aF0.6
aF0.13636363636363635
aF0.25
aF0.0
aF0.0
aF0.0
aF0.0
aF0.0
aF0.0
aF0.9765625
aF-0.13181818181818183
aF-0.13181818181818183
aF-0.8
aF0.0
aF-0.1
aF0.0
aF0.0
aF0.0
aF-0.22121212121212122
asS'Kings'
p45
(lp46
F0.0
aF0.0
aF0.0
aF-0.5
aF-0.5
aF0.0
aF-0.03333333333333333
aF0.0
aF0.0
aF0.22265625
aF-0.07500000000000001
aF0.4464285714285714
aF0.2848484848484848
aF0.0
aF0.0
aF0.9069010416666665
aF0.3
aF0.4
aF0.08333333333333333
aF-0.4
aF0.19999999999999998
aF0.0
aF0.0
aF0.0
aF-0.04
aF0.4
aF0.033333333333333326
aF-0.5
aF-0.25
aF0.375
aF0.0
aF0.0
aF0.58125
aF0.13636363636363635
aF0.0
aF0.4
aF0.0
aF0.375
aF0.8
aF0.0
aF0.06666666666666667
aF0.09999999999999999
aF0.0
aF0.2333333333333333
aF0.0
aF0.0
aF0.0
aF-0.07558441558441557
aF0.0
aF0.125
aF0.18333333333333335
aF0.46875
aF0.0
aF0.0
aF0.25
aF-0.78125
aF0.17045454545454544
aF0.0875
aF0.09999999999999999
aF0.0
aF0.34545454545454546
aF0.0
aF0.7
aF0.5
aF0.71796875
aF0.5333333333333333
aF-0.125
aF0.675
aF0.0
aF0.0
aF0.0
aF0.0
aF0.4
aF-0.2
aF0.0
aF0.0
aF0.0
aF0.13636363636363635
aF0.2333333333333333
aF0.0
aF0.8
aF-0.25
aF0.0
aF0.171875
aF-0.46875
aF-0.19722222222222222
aF0.0
aF0.0
aF-0.2
aF0.0
aF0.0
aF0.0
aF0.0
aF-0.5
aF-0.5
aF0.0
aF-0.03333333333333333
aF0.0
aF0.0
aF0.22265625
aF-0.07500000000000001
aF0.4464285714285714
aF0.2848484848484848
aF0.0
aF0.0
aF0.9069010416666665
aF0.3
aF0.4
aF0.08333333333333333
aF-0.4
aF0.19999999999999998
aF0.0
aF0.0
aF0.0
aF-0.04
aF0.4
aF0.033333333333333326
aF-0.5
aF-0.25
aF0.375
aF0.0
aF0.0
aF0.58125
aF0.13636363636363635
aF0.0
aF0.4
aF0.0
aF0.375
aF0.8
aF0.0
aF0.06666666666666667
aF0.09999999999999999
aF0.0
aF0.2333333333333333
aF0.0
aF0.0
aF0.0
aF-0.07558441558441557
aF0.0
aF0.125
aF0.18333333333333335
aF0.46875
aF0.0
aF0.0
aF0.25
aF-0.78125
aF0.17045454545454544
aF0.0875
aF0.09999999999999999
aF0.0
aF0.34545454545454546
aF0.0
aF0.7
aF0.5
aF0.71796875
aF0.5333333333333333
aF-0.125
aF0.675
aF0.0
aF0.0
aF0.0
aF0.0
aF0.4
aF-0.2
aF0.0
aF0.0
aF0.0
aF0.13636363636363635
aF0.2333333333333333
aF0.0
aF0.8
aF-0.25
aF0.0
aF0.171875
aF-0.46875
aF-0.19722222222222222
aF0.0
aF0.0
aF-0.2
aF0.0
asS'Raptors'
p47
(lp48
F0.0
aF0.0
aF-0.004166666666666666
aF-0.4
aF0.209375
aF0.14285714285714285
aF0.0
aF0.0
aF0.5
aF0.0
aF0.0
aF0.0
aF0.4
aF0.0
aF0.24444444444444444
aF-0.375
aF0.0
aF0.0
aF0.024999999999999994
aF0.0
aF0.024999999999999994
aF0.0
aF0.30000000000000004
aF0.18333333333333335
aF0.5
aF0.0
aF0.1
aF0.17045454545454544
aF-0.2
aF0.01666666666666668
aF0.0
aF0.0
aF0.25
aF0.0
aF-0.1875
aF0.0
aF0.0
aF0.35
aF0.125
aF-0.048611111111111105
aF0.3375
aF0.0
aF0.0
aF0.1333333333333333
aF-0.45
aF0.16666666666666666
aF-0.45
aF0.0
aF0.0
aF-0.2
aF0.0
aF0.0
aF0.44642857142857145
aF0.0
aF-0.2
aF0.0
aF0.021590909090909088
aF0.5
aF0.39285714285714285
aF-0.375
aF0.0
aF0.0
aF0.0
aF0.0
aF0.0
aF-0.4666666666666666
aF-0.008928571428571425
aF0.2
aF0.5
aF0.015340909090909086
aF0.0
aF0.08787878787878789
aF0.020833333333333332
aF0.02013888888888893
aF0.0
aF0.3875
aF0.0
aF0.11666666666666668
aF0.0
aF-0.25
aF0.0
aF0.0
aF0.0
aF0.0
aF1.0
aF0.0
aF0.8
aF0.0
aF0.3234375
aF0.1622727272727273
aF0.0
aF0.0
aF0.0
aF0.0
aF0.5
aF0.0
aF0.0
aF0.0
aF0.3125
aF0.25
aF0.0
aF0.4666666666666667
aF0.0
aF0.7
aF0.0
aF0.0
aF0.0
aF0.0
aF-0.004166666666666666
aF-0.4
aF0.209375
aF0.14285714285714285
aF0.0
aF0.0
aF0.5
aF0.0
aF0.0
aF0.0
aF0.4
aF0.0
aF0.24444444444444444
aF-0.375
aF0.0
aF0.0
aF0.024999999999999994
aF0.0
aF0.024999999999999994
aF0.0
aF0.30000000000000004
aF0.18333333333333335
aF0.5
aF0.0
aF0.1
aF0.17045454545454544
aF-0.2
aF0.01666666666666668
aF0.0
aF0.0
aF0.25
aF0.0
aF-0.1875
aF0.0
aF0.0
aF0.35
aF0.125
aF-0.048611111111111105
aF0.3375
aF0.0
aF0.0
aF0.1333333333333333
aF-0.45
aF0.16666666666666666
aF-0.45
aF0.0
aF0.0
aF-0.2
aF0.0
aF0.0
aF0.44642857142857145
aF0.0
aF-0.2
aF0.1625
aF0.0
aF-0.375
aF0.0
aF0.021590909090909088
aF0.5
aF0.39285714285714285
aF-0.375
aF0.0
aF0.0
aF0.0
aF0.0
aF0.0
aF-0.4666666666666666
aF-0.008928571428571425
aF0.2
aF0.5
aF0.015340909090909086
aF0.0
aF0.08787878787878789
aF0.020833333333333332
aF0.02013888888888893
aF0.0
aF0.3875
aF0.0
aF0.11666666666666668
aF0.0
aF-0.25
aF0.0
aF0.0
aF0.0
aF0.0
aF1.0
aF0.0
aF0.8
aF0.0
aF0.3234375
aF0.1622727272727273
aF0.0
aF0.0
aF0.0
aF0.0
aF0.5
aF0.0
aF0.0
aF0.0
aF0.3125
aF0.25
aF0.0
aF0.4666666666666667
asS'Spurs'
p49
(lp50
F-0.17916666666666667
aF0.0
aF0.19999999999999998
aF0.0
aF0.0
aF-0.125
aF0.3333333333333333
aF-0.625
aF0.0
aF0.0
aF0.0
aF0.0
aF0.2
aF0.0
aF0.4666666666666666
aF0.0
aF0.6
aF0.0
aF-0.4
aF-0.4
aF0.875
aF-0.5
aF-0.1875
aF0.0
aF-0.05833333333333333
aF-0.4
aF0.4
aF0.35
aF0.0
aF-0.033333333333333354
aF0.0
aF0.0
aF-0.15
aF-0.24166666666666667
aF0.0
aF0.0
aF1.0
aF0.0
aF0.0
aF0.0
aF0.0
aF0.0
aF-0.1
aF0.0
aF0.0
aF0.0
aF-0.1
aF0.0
aF0.2
aF0.1
aF0.0
aF0.0
aF0.0
aF-0.08787878787878789
aF0.0
aF-0.05555555555555555
aF-0.025000000000000022
aF-0.033333333333333354
aF0.0
aF0.0
aF0.0
aF0.0
aF0.25
aF-0.25
aF0.0
aF0.0
aF0.7
aF0.9
aF0.0
aF0.13333333333333333
aF0.072
aF-0.2
aF-0.4
aF0.2
aF-0.1
aF0.4928571428571428
aF-0.4
aF0.3125
aF0.0
aF0.0
aF-0.2
aF0.7
aF0.0
aF0.13636363636363635
aF0.4166666666666667
aF-0.15000000000000002
aF0.5
aF0.0
aF0.0
aF0.0
aF0.9
aF0.0
aF0.0
aF0.0
aF0.0
aF0.0
aF0.0
aF0.0
aF-0.4147727272727273
aF0.0
aF-0.075
aF0.4333333333333333
aF0.7000000000000001
aF0.0
aF0.0625
aF-0.13541666666666666
aF0.0
aF0.0
aF0.0
aF0.5666666666666667
aF0.0
aF0.0
aF0.0
aF0.0
aF0.06333333333333332
aF0.0
aF0.0
aF0.0
aF0.0
aF-0.1
aF0.5366666666666666
aF0.0
aF0.4
aF0.0
aF0.8
aF0.0
aF-0.17916666666666667
aF0.0
aF0.19999999999999998
aF0.0
aF0.0
aF-0.125
aF0.3333333333333333
aF-0.625
aF0.0
aF0.0
aF0.0
aF0.0
aF0.2
aF0.0
aF0.4666666666666666
aF0.0
aF0.6
aF0.0
aF-0.4
aF-0.4
aF0.875
aF-0.5
aF-0.1875
aF0.0
aF-0.05833333333333333
aF-0.4
aF0.4
aF0.35
aF0.0
aF-0.033333333333333354
aF0.0
aF0.0
aF-0.15
aF-0.24166666666666667
aF0.0
aF0.0
aF1.0
aF0.0
aF0.0
aF0.0
aF0.0
aF0.0
aF-0.1
aF0.0
aF0.0
aF0.0
aF-0.1
aF0.2
aF0.1
aF0.0
aF0.0
aF0.0
aF-0.08787878787878789
aF0.0
aF-0.05555555555555555
aF-0.025000000000000022
aF-0.033333333333333354
aF0.0
aF0.0
aF0.0
aF0.0
aF0.25
aF-0.25
aF0.0
aF0.0
aF0.7
aF0.9
aF0.0
aF0.13333333333333333
aF0.072
aF-0.2
aF-0.4
aF0.2
aF-0.1
aF0.4928571428571428
aF-0.4
aF0.3125
aF0.0
aF0.0
aF-0.2
aF0.7
aF0.0
aF0.13636363636363635
aF0.4166666666666667
aF-0.15000000000000002
aF0.37727272727272726
aF0.0
aF0.0
aF0.0
aF0.9
aF0.0
aF0.0
aF0.0
aF0.0
aF0.0
aF0.0
aF0.0
aF-0.4147727272727273
aF0.0
aF-0.075
aF0.4333333333333333
aF0.7000000000000001
aF0.0
aF0.0625
aF-0.13541666666666666
aF0.0
aF0.0
aF0.0
aF0.5666666666666667
aF0.0
aF0.0
aF0.0
aF0.0
aF0.06333333333333332
aF0.0
aF0.0
aF0.0
aF0.0
aF-0.1
aF0.5366666666666666
aF0.0
aF0.4
asS'Pistons'
p51
(lp52
F0.2
aF0.0
aF0.0
aF0.0
aF0.0
aF0.0
aF0.0
aF0.16
aF0.3875
aF0.0
aF0.0
aF0.4666666666666666
aF0.0
aF0.0
aF0.0
aF-0.15
aF0.25
aF0.0
aF-0.05
aF0.0
aF0.0
aF0.0
aF0.0
aF0.0
aF0.0
aF0.0
aF0.10000000000000002
aF0.3125
aF0.4166666666666667
aF0.0
aF-0.4
aF-0.2
aF0.5
aF0.23125
aF-0.25
aF-0.0625
aF0.0
aF0.0
aF0.0
aF0.0
aF-0.75
aF0.2571428571428571
aF-0.004166666666666666
aF0.0
aF0.14285714285714285
aF0.0
aF0.6
aF0.21666666666666667
aF0.0
aF0.0
aF0.0
aF0.0
aF0.0
aF0.1
aF-0.125
aF0.0
aF0.2
aF0.0
aF0.0
aF0.0
aF0.0
aF0.0
aF0.0
aF0.16
aF0.3875
aF0.0
aF0.0
aF0.4666666666666666
aF0.0
aF0.0
aF0.0
aF-0.15
aF0.25
aF0.0
aF-0.05
aF0.0
aF0.0
aF0.0
aF0.0
aF0.0
aF0.0
aF0.0
aF0.10000000000000002
aF0.3125
aF0.4166666666666667
aF0.0
aF-0.4
aF-0.2
aF0.5
aF0.23125
aF-0.25
aF-0.0625
aF0.0
aF0.0
aF0.0
aF0.0
aF-0.75
aF0.2571428571428571
aF-0.004166666666666666
aF0.0
aF0.14285714285714285
aF0.0
aF0.6
aF0.21666666666666667
aF0.0
aF0.0
aF0.0
aF0.0
aF0.0
aF0.1
asS'Grizzlies'
p53
(lp54
F-0.36458333333333337
aF0.6599999999999999
aF0.0
aF0.0
aF-0.5
aF0.0
aF0.0
aF-0.5
aF0.0
aF-0.45
aF0.0
aF0.43333333333333335
aF1.0
aF-0.4
aF-0.4
aF0.0
aF-0.2
aF-0.36458333333333337
aF0.0
aF0.0
aF0.5
aF0.0
aF0.0
aF0.0
aF0.0
aF-0.15555555555555559
aF0.5
aF1.0
aF0.0
aF0.5
aF-0.05714285714285716
aF-0.20476190476190478
aF-0.05714285714285716
aF0.0
aF1.0
aF0.39015151515151514
aF0.0
aF-0.4
aF0.0
aF0.0
aF0.0
aF0.5
aF0.8
aF0.0
aF-0.4
aF0.0
aF0.5
aF0.5
aF0.0
aF0.0
aF0.0
aF0.0
aF0.4
aF0.0
aF0.0
aF0.0
aF0.0
aF0.0
aF0.0
aF0.0
aF0.5
aF0.08461538461538462
aF0.5
aF0.26666666666666666
aF0.2
aF1.0
aF0.0
aF-0.031250000000000014
aF0.0
aF0.4
aF-0.4
aF0.11363636363636363
aF0.40535714285714286
aF0.0
aF-0.04999999999999997
aF0.25
aF0.0
aF0.425
aF-0.1
aF0.0
aF0.0
aF-0.5666666666666665
aF0.0
aF-0.19166666666666665
aF-0.8
aF-0.15
aF-0.053000000000000005
aF0.03333333333333329
aF0.0
aF-0.36458333333333337
aF0.6599999999999999
aF0.0
aF0.0
aF-0.5
aF0.0
aF0.0
aF-0.5
aF0.0
aF-0.45
aF0.0
aF0.43333333333333335
aF1.0
aF-0.4
aF-0.4
aF0.0
aF-0.2
aF-0.36458333333333337
aF0.0
aF0.0
aF0.5
aF0.0
aF0.0
aF0.0
aF0.0
aF-0.15555555555555559
aF0.5
aF1.0
aF0.0
aF0.5
aF-0.05714285714285716
aF-0.20476190476190478
aF-0.05714285714285716
aF0.0
aF1.0
aF0.39015151515151514
aF0.0
aF-0.4
aF0.0
aF0.0
aF0.0
aF0.5
aF0.8
aF0.0
aF-0.4
aF0.0
aF0.5
aF0.5
aF0.0
aF0.0
aF0.0
aF0.0
aF0.4
aF0.0
aF0.0
aF0.0
aF0.0
aF0.0
aF0.0
aF0.0
aF0.5
aF0.08461538461538462
aF0.5
aF0.26666666666666666
aF0.2
aF1.0
aF0.0
aF-0.031250000000000014
aF0.0
aF0.4
aF-0.4
aF0.11363636363636363
aF0.40535714285714286
aF0.0
aF-0.04999999999999997
aF0.25
aF0.0
aF0.425
aF-0.1
aF0.0
aF0.0
aF-0.5666666666666665
aF0.0
aF-0.19166666666666665
aF-0.8
aF-0.15
aF-0.053000000000000005
aF0.03333333333333329
aF0.0
asS'Suns'
p55
(lp56
F0.25625
aF0.24318181818181817
aF-0.08238636363636365
aF0.0
aF-0.041666666666666664
aF0.0
aF0.0
aF0.5
aF0.0
aF0.125
aF0.0
aF0.0
aF0.0
aF-0.2916666666666667
aF0.07232142857142856
aF0.30000000000000004
aF0.0
aF0.2193877551020408
aF0.0
aF0.0
aF0.7999999999999999
aF0.1
aF-0.06666666666666667
aF-0.09999999999999992
aF0.0
aF-0.25
aF-0.010416666666666666
aF0.0
aF0.4666666666666667
aF0.033333333333333326
aF0.17222222222222222
aF-0.5
aF0.0
aF0.0
aF0.4
aF-0.05345052083333325
aF0.0
aF0.625
aF-0.2
aF-0.2
aF0.0
aF0.0
aF0.0
aF0.8
aF0.0
aF0.0
aF0.0
aF0.0
aF0.0
aF0.0
aF0.0
aF0.0
aF-0.4
aF0.1
aF0.13333333333333333
aF0.24318181818181817
aF0.425
aF0.22443181818181818
aF0.0
aF0.0
aF0.0
aF0.13636363636363635
aF0.0
aF0.0
aF-0.15
aF0.13636363636363635
aF0.4681818181818182
aF0.8
aF0.0
aF0.0
aF0.13636363636363635
aF0.0
aF0.0
aF-0.44999999999999996
aF0.0
aF0.0
aF0.5333333333333333
aF0.0
aF0.125
aF0.16666666666666663
aF0.4833333333333334
aF0.30000000000000004
aF0.35
aF0.0
aF0.0
aF-0.04999999999999999
aF0.0
aF-0.4
aF-0.5
aF0.0
aF0.0
aF0.0
aF-0.1013888888888889
aF-0.25
aF0.041666666666666685
aF-0.5
aF0.04
aF-0.275
aF0.7
aF0.0
aF0.7
aF0.0
aF0.0
aF-0.15
aF0.21212121212121213
aF-0.4
aF0.7999999999999999
aF0.20500000000000002
aF0.8
aF-0.7
aF-1.0
aF0.25
aF0.0
aF0.0
aF-0.19999999999999998
aF0.2672727272727273
aF0.25625
aF0.24318181818181817
aF-0.08238636363636365
aF0.0
aF-0.041666666666666664
aF0.0
aF0.0
aF0.5
aF0.0
aF0.125
aF0.0
aF0.0
aF0.0
aF-0.2916666666666667
aF0.07232142857142856
aF0.30000000000000004
aF0.0
aF0.2193877551020408
aF0.0
aF0.0
aF0.7999999999999999
aF0.1
aF-0.06666666666666667
aF-0.09999999999999992
aF0.0
aF-0.25
aF-0.010416666666666666
aF0.0
aF0.4666666666666667
aF0.033333333333333326
aF0.17222222222222222
aF-0.5
aF0.0
aF0.0
aF0.4
aF-0.05345052083333325
aF0.0
aF0.625
aF-0.2
aF-0.2
aF0.0
aF0.0
aF0.0
aF0.8
aF0.0
aF0.0
aF0.0
aF0.0
aF0.0
aF0.0
aF0.0
aF0.0
aF-0.4
aF0.1
aF0.13333333333333333
aF0.24318181818181817
aF0.425
aF0.22443181818181818
aF0.0
aF0.0
aF0.0
aF0.13636363636363635
aF0.0
aF0.0
aF-0.15
aF0.13636363636363635
aF0.4681818181818182
aF0.8
aF0.0
aF0.0
aF0.13636363636363635
aF0.0
aF0.0
aF-0.44999999999999996
aF0.0
aF0.0
aF0.5333333333333333
aF0.0
aF0.125
aF0.16666666666666663
aF0.4833333333333334
aF0.30000000000000004
aF0.35
aF0.0
aF0.0
aF-0.04999999999999999
aF0.0
aF-0.4
aF-0.5
aF0.0
aF0.0
aF0.0
aF-0.1013888888888889
aF-0.25
aF0.041666666666666685
aF-0.5
aF0.04
aF-0.275
aF0.7
aF0.0
aF0.7
aF0.0
aF0.0
aF-0.15
aF0.21212121212121213
aF-0.4
aF0.7999999999999999
aF0.20500000000000002
aF0.8
aF-0.7
aF-1.0
aF0.25
aF0.0
aF0.0
aF-0.19999999999999998
aF0.2672727272727273
asS'Bucks'
p57
(lp58
F0.0
aF0.1
aF1.0
aF-0.041666666666666664
aF0.0
aF0.0
aF-0.2
aF0.011111111111111112
aF0.0
aF0.0
aF0.0
aF0.2
aF0.0
aF-0.15555555555555559
aF0.0
aF0.5
aF0.0
aF0.0
aF0.0
aF0.31818181818181823
aF0.4333333333333333
aF0.0
aF0.0
aF0.0
aF0.0
aF0.15833333333333333
aF0.3111111111111111
aF0.0
aF0.033333333333333326
aF0.0
aF-0.75
aF0.0
aF0.0
aF0.0
aF-0.625
aF0.0
aF-0.04090909090909092
aF0.0
aF0.0
aF0.25625
aF0.0
aF0.1
aF0.875
aF0.0
aF0.24375000000000002
aF0.0
aF0.0
aF-0.4166666666666666
aF0.8
aF0.2
aF0.5
aF0.0
aF0.0
aF0.0
aF0.0
aF0.11818181818181818
aF0.5
aF-0.8
aF0.6125
aF0.425
aF0.0
aF0.0
aF0.75
aF1.0
aF0.25
aF0.04390625
aF0.4
aF-0.05
aF0.2125
aF0.6
aF0.0
aF-0.1
aF0.0
aF0.35000000000000003
aF0.6
aF0.0
aF0.4
aF0.17857142857142858
aF0.0
aF0.033333333333333326
aF0.4
aF0.0
aF0.4
aF0.0
aF-0.015151515151515152
aF0.625
aF0.0
aF0.21103896103896103
aF0.0
aF0.0
aF0.0
aF0.0
aF0.0
aF0.30000000000000004
aF0.125
aF-0.5
aF0.0
aF0.25
aF0.0
aF0.1
aF1.0
aF-0.041666666666666664
aF0.0
aF0.0
aF-0.2
aF0.011111111111111112
aF0.0
aF0.0
aF0.0
aF0.2
aF0.0
aF-0.15555555555555559
aF0.0
aF0.5
aF0.0
aF0.0
aF0.0
aF0.31818181818181823
aF0.4333333333333333
aF0.0
aF0.0
aF0.0
aF0.0
aF0.15833333333333333
aF0.3111111111111111
aF0.0
aF0.033333333333333326
aF0.0
aF-0.75
aF0.0
aF0.0
aF0.0
aF-0.625
aF0.0
aF-0.04090909090909092
aF0.0
aF0.0
aF0.25625
aF0.0
aF0.1
aF0.875
aF0.0
aF0.24375000000000002
aF0.0
aF0.0
aF-0.4166666666666666
aF0.8
aF0.2
aF0.5
aF0.0
aF0.0
aF0.0
aF0.0
aF0.11818181818181818
aF0.5
aF-0.8
aF0.6125
aF0.425
aF0.0
aF0.0
aF0.75
aF1.0
aF0.25
aF0.04390625
aF0.4
aF-0.05
aF0.2125
aF0.6
aF0.0
aF-0.1
aF0.0
aF0.35000000000000003
aF0.6
aF0.0
aF0.4
aF0.17857142857142858
aF0.0
aF0.033333333333333326
aF0.4
aF0.0
aF0.4
aF0.0
aF-0.015151515151515152
aF0.625
aF0.0
aF0.21103896103896103
aF0.0
aF0.0
aF0.0
aF0.0
aF0.0
aF0.30000000000000004
aF0.125
aF-0.5
aF0.0
aF0.25
asS'Hornets'
p59
(lp60
F0.0
aF-0.125
aF1.0
aF-0.45
aF0.0
aF0.0
aF0.0
aF0.0
aF0.30625
aF0.37427272727272726
aF0.0
aF0.0
aF0.0
aF0.0
aF0.0
aF0.0
aF0.0
aF0.13636363636363635
aF0.0
aF0.0
aF0.35
aF0.0
aF0.0
aF-0.03333333333333333
aF0.0
aF-0.45
aF-0.3333333333333333
aF-0.3125
aF-0.20833333333333334
aF-0.4
aF0.0
aF-0.3125
aF0.35
aF0.0
aF-0.3125
aF-0.2
aF-0.0625
aF-0.11249999999999999
aF0.0
aF0.3833333333333333
aF-0.05
aF-0.625
aF0.0
aF-0.3958333333333333
aF-0.25
aF-0.625
aF-0.3125
aF0.0
aF-0.125
aF-0.2833333333333333
aF-0.09791666666666665
aF-0.625
aF0.1
aF0.5
aF0.0
aF0.0
aF0.0
aF0.0
aF0.0
aF0.6
aF0.0
aF0.0
aF0.11111111111111112
aF0.0
aF0.25
aF-0.5
aF-0.05555555555555555
aF0.0
aF0.5
aF0.0
aF0.3814697265625
aF0.0
aF0.0
aF1.0
aF-0.3125
aF0.0
aF0.0
aF0.375
aF-0.625
aF0.5
aF0.0
aF-0.11249999999999999
aF-0.12121212121212122
aF-0.625
aF0.0
aF-0.2638888888888889
aF-0.625
aF0.0
aF0.26666666666666666
aF0.0
aF0.0
aF-0.125
aF1.0
aF-0.45
aF0.0
aF0.0
aF0.0
aF0.0
aF0.30625
aF0.37427272727272726
aF0.0
aF0.0
aF0.0
aF0.0
aF0.0
aF0.0
aF0.0
aF0.13636363636363635
aF0.0
aF0.0
aF0.35
aF0.0
aF0.0
aF-0.03333333333333333
aF0.0
aF-0.45
aF-0.3333333333333333
aF0.08
aF-0.2638888888888889
aF-0.125
aF-0.3125
aF-0.20833333333333334
aF-0.4
aF0.0
aF-0.3125
aF0.35
aF0.0
aF-0.3125
aF-0.2
aF-0.0625
aF-0.11249999999999999
aF0.0
aF0.3833333333333333
aF-0.05
aF-0.625
aF0.0
aF-0.3958333333333333
aF-0.25
aF-0.625
aF-0.3125
aF0.0
aF-0.125
aF-0.2833333333333333
aF-0.09791666666666665
aF-0.625
aF0.1
aF0.5
aF0.0
aF0.0
aF0.0
aF0.0
aF0.0
aF0.6
aF0.0
aF0.0
aF0.11111111111111112
aF0.0
aF0.25
aF-0.5
aF-0.05555555555555555
aF0.0
aF0.5
aF0.0
aF0.3814697265625
aF0.0
aF0.0
aF1.0
aF-0.3125
aF0.0
aF0.0
aF0.375
aF-0.625
aF0.5
aF0.0
aF-0.11249999999999999
aF-0.12121212121212122
aF-0.625
aF0.0
aF-0.2638888888888889
aF-0.625
aF0.0
as.